ARM GAS  C:\Users\phamt\AppData\Local\Temp\ccJtbr4O.s 			page 1


   1              		.cpu cortex-m4
   2              		.arch armv7e-m
   3              		.fpu fpv4-sp-d16
   4              		.eabi_attribute 27, 1
   5              		.eabi_attribute 28, 1
   6              		.eabi_attribute 20, 1
   7              		.eabi_attribute 21, 1
   8              		.eabi_attribute 23, 3
   9              		.eabi_attribute 24, 1
  10              		.eabi_attribute 25, 1
  11              		.eabi_attribute 26, 1
  12              		.eabi_attribute 30, 6
  13              		.eabi_attribute 34, 1
  14              		.eabi_attribute 18, 4
  15              		.file	"list.c"
  16              		.text
  17              		.section	.text.vListInitialise,"ax",%progbits
  18              		.align	1
  19              		.global	vListInitialise
  20              		.syntax unified
  21              		.thumb
  22              		.thumb_func
  24              	vListInitialise:
  25              		@ args = 0, pretend = 0, frame = 8
  26              		@ frame_needed = 1, uses_anonymous_args = 0
  27              		@ link register save eliminated.
  28 0000 80B4     		push	{r7}
  29 0002 83B0     		sub	sp, sp, #12
  30 0004 00AF     		add	r7, sp, #0
  31 0006 7860     		str	r0, [r7, #4]
  32 0008 7B68     		ldr	r3, [r7, #4]
  33 000a 03F10802 		add	r2, r3, #8
  34 000e 7B68     		ldr	r3, [r7, #4]
  35 0010 5A60     		str	r2, [r3, #4]
  36 0012 7B68     		ldr	r3, [r7, #4]
  37 0014 4FF0FF32 		mov	r2, #-1
  38 0018 9A60     		str	r2, [r3, #8]
  39 001a 7B68     		ldr	r3, [r7, #4]
  40 001c 03F10802 		add	r2, r3, #8
  41 0020 7B68     		ldr	r3, [r7, #4]
  42 0022 DA60     		str	r2, [r3, #12]
  43 0024 7B68     		ldr	r3, [r7, #4]
  44 0026 03F10802 		add	r2, r3, #8
  45 002a 7B68     		ldr	r3, [r7, #4]
  46 002c 1A61     		str	r2, [r3, #16]
  47 002e 7B68     		ldr	r3, [r7, #4]
  48 0030 0022     		movs	r2, #0
  49 0032 1A60     		str	r2, [r3]
  50 0034 00BF     		nop
  51 0036 0C37     		adds	r7, r7, #12
  52 0038 BD46     		mov	sp, r7
  53              		@ sp needed
  54 003a 5DF8047B 		ldr	r7, [sp], #4
  55 003e 7047     		bx	lr
  57              		.section	.text.vListInitialiseItem,"ax",%progbits
  58              		.align	1
  59              		.global	vListInitialiseItem
ARM GAS  C:\Users\phamt\AppData\Local\Temp\ccJtbr4O.s 			page 2


  60              		.syntax unified
  61              		.thumb
  62              		.thumb_func
  64              	vListInitialiseItem:
  65              		@ args = 0, pretend = 0, frame = 8
  66              		@ frame_needed = 1, uses_anonymous_args = 0
  67              		@ link register save eliminated.
  68 0000 80B4     		push	{r7}
  69 0002 83B0     		sub	sp, sp, #12
  70 0004 00AF     		add	r7, sp, #0
  71 0006 7860     		str	r0, [r7, #4]
  72 0008 7B68     		ldr	r3, [r7, #4]
  73 000a 0022     		movs	r2, #0
  74 000c 1A61     		str	r2, [r3, #16]
  75 000e 00BF     		nop
  76 0010 0C37     		adds	r7, r7, #12
  77 0012 BD46     		mov	sp, r7
  78              		@ sp needed
  79 0014 5DF8047B 		ldr	r7, [sp], #4
  80 0018 7047     		bx	lr
  82              		.section	.text.vListInsertEnd,"ax",%progbits
  83              		.align	1
  84              		.global	vListInsertEnd
  85              		.syntax unified
  86              		.thumb
  87              		.thumb_func
  89              	vListInsertEnd:
  90              		@ args = 0, pretend = 0, frame = 16
  91              		@ frame_needed = 1, uses_anonymous_args = 0
  92              		@ link register save eliminated.
  93 0000 80B4     		push	{r7}
  94 0002 85B0     		sub	sp, sp, #20
  95 0004 00AF     		add	r7, sp, #0
  96 0006 7860     		str	r0, [r7, #4]
  97 0008 3960     		str	r1, [r7]
  98 000a 7B68     		ldr	r3, [r7, #4]
  99 000c 5B68     		ldr	r3, [r3, #4]
 100 000e FB60     		str	r3, [r7, #12]
 101 0010 3B68     		ldr	r3, [r7]
 102 0012 FA68     		ldr	r2, [r7, #12]
 103 0014 5A60     		str	r2, [r3, #4]
 104 0016 FB68     		ldr	r3, [r7, #12]
 105 0018 9A68     		ldr	r2, [r3, #8]
 106 001a 3B68     		ldr	r3, [r7]
 107 001c 9A60     		str	r2, [r3, #8]
 108 001e FB68     		ldr	r3, [r7, #12]
 109 0020 9B68     		ldr	r3, [r3, #8]
 110 0022 3A68     		ldr	r2, [r7]
 111 0024 5A60     		str	r2, [r3, #4]
 112 0026 FB68     		ldr	r3, [r7, #12]
 113 0028 3A68     		ldr	r2, [r7]
 114 002a 9A60     		str	r2, [r3, #8]
 115 002c 3B68     		ldr	r3, [r7]
 116 002e 7A68     		ldr	r2, [r7, #4]
 117 0030 1A61     		str	r2, [r3, #16]
 118 0032 7B68     		ldr	r3, [r7, #4]
 119 0034 1B68     		ldr	r3, [r3]
ARM GAS  C:\Users\phamt\AppData\Local\Temp\ccJtbr4O.s 			page 3


 120 0036 5A1C     		adds	r2, r3, #1
 121 0038 7B68     		ldr	r3, [r7, #4]
 122 003a 1A60     		str	r2, [r3]
 123 003c 00BF     		nop
 124 003e 1437     		adds	r7, r7, #20
 125 0040 BD46     		mov	sp, r7
 126              		@ sp needed
 127 0042 5DF8047B 		ldr	r7, [sp], #4
 128 0046 7047     		bx	lr
 130              		.section	.text.vListInsert,"ax",%progbits
 131              		.align	1
 132              		.global	vListInsert
 133              		.syntax unified
 134              		.thumb
 135              		.thumb_func
 137              	vListInsert:
 138              		@ args = 0, pretend = 0, frame = 16
 139              		@ frame_needed = 1, uses_anonymous_args = 0
 140              		@ link register save eliminated.
 141 0000 80B4     		push	{r7}
 142 0002 85B0     		sub	sp, sp, #20
 143 0004 00AF     		add	r7, sp, #0
 144 0006 7860     		str	r0, [r7, #4]
 145 0008 3960     		str	r1, [r7]
 146 000a 3B68     		ldr	r3, [r7]
 147 000c 1B68     		ldr	r3, [r3]
 148 000e BB60     		str	r3, [r7, #8]
 149 0010 BB68     		ldr	r3, [r7, #8]
 150 0012 B3F1FF3F 		cmp	r3, #-1
 151 0016 03D1     		bne	.L5
 152 0018 7B68     		ldr	r3, [r7, #4]
 153 001a 1B69     		ldr	r3, [r3, #16]
 154 001c FB60     		str	r3, [r7, #12]
 155 001e 0CE0     		b	.L6
 156              	.L5:
 157 0020 7B68     		ldr	r3, [r7, #4]
 158 0022 0833     		adds	r3, r3, #8
 159 0024 FB60     		str	r3, [r7, #12]
 160 0026 02E0     		b	.L7
 161              	.L8:
 162 0028 FB68     		ldr	r3, [r7, #12]
 163 002a 5B68     		ldr	r3, [r3, #4]
 164 002c FB60     		str	r3, [r7, #12]
 165              	.L7:
 166 002e FB68     		ldr	r3, [r7, #12]
 167 0030 5B68     		ldr	r3, [r3, #4]
 168 0032 1B68     		ldr	r3, [r3]
 169 0034 BA68     		ldr	r2, [r7, #8]
 170 0036 9A42     		cmp	r2, r3
 171 0038 F6D2     		bcs	.L8
 172              	.L6:
 173 003a FB68     		ldr	r3, [r7, #12]
 174 003c 5A68     		ldr	r2, [r3, #4]
 175 003e 3B68     		ldr	r3, [r7]
 176 0040 5A60     		str	r2, [r3, #4]
 177 0042 3B68     		ldr	r3, [r7]
 178 0044 5B68     		ldr	r3, [r3, #4]
ARM GAS  C:\Users\phamt\AppData\Local\Temp\ccJtbr4O.s 			page 4


 179 0046 3A68     		ldr	r2, [r7]
 180 0048 9A60     		str	r2, [r3, #8]
 181 004a 3B68     		ldr	r3, [r7]
 182 004c FA68     		ldr	r2, [r7, #12]
 183 004e 9A60     		str	r2, [r3, #8]
 184 0050 FB68     		ldr	r3, [r7, #12]
 185 0052 3A68     		ldr	r2, [r7]
 186 0054 5A60     		str	r2, [r3, #4]
 187 0056 3B68     		ldr	r3, [r7]
 188 0058 7A68     		ldr	r2, [r7, #4]
 189 005a 1A61     		str	r2, [r3, #16]
 190 005c 7B68     		ldr	r3, [r7, #4]
 191 005e 1B68     		ldr	r3, [r3]
 192 0060 5A1C     		adds	r2, r3, #1
 193 0062 7B68     		ldr	r3, [r7, #4]
 194 0064 1A60     		str	r2, [r3]
 195 0066 00BF     		nop
 196 0068 1437     		adds	r7, r7, #20
 197 006a BD46     		mov	sp, r7
 198              		@ sp needed
 199 006c 5DF8047B 		ldr	r7, [sp], #4
 200 0070 7047     		bx	lr
 202              		.section	.text.uxListRemove,"ax",%progbits
 203              		.align	1
 204              		.global	uxListRemove
 205              		.syntax unified
 206              		.thumb
 207              		.thumb_func
 209              	uxListRemove:
 210              		@ args = 0, pretend = 0, frame = 16
 211              		@ frame_needed = 1, uses_anonymous_args = 0
 212              		@ link register save eliminated.
 213 0000 80B4     		push	{r7}
 214 0002 85B0     		sub	sp, sp, #20
 215 0004 00AF     		add	r7, sp, #0
 216 0006 7860     		str	r0, [r7, #4]
 217 0008 7B68     		ldr	r3, [r7, #4]
 218 000a 1B69     		ldr	r3, [r3, #16]
 219 000c FB60     		str	r3, [r7, #12]
 220 000e 7B68     		ldr	r3, [r7, #4]
 221 0010 5B68     		ldr	r3, [r3, #4]
 222 0012 7A68     		ldr	r2, [r7, #4]
 223 0014 9268     		ldr	r2, [r2, #8]
 224 0016 9A60     		str	r2, [r3, #8]
 225 0018 7B68     		ldr	r3, [r7, #4]
 226 001a 9B68     		ldr	r3, [r3, #8]
 227 001c 7A68     		ldr	r2, [r7, #4]
 228 001e 5268     		ldr	r2, [r2, #4]
 229 0020 5A60     		str	r2, [r3, #4]
 230 0022 FB68     		ldr	r3, [r7, #12]
 231 0024 5B68     		ldr	r3, [r3, #4]
 232 0026 7A68     		ldr	r2, [r7, #4]
 233 0028 9A42     		cmp	r2, r3
 234 002a 03D1     		bne	.L10
 235 002c 7B68     		ldr	r3, [r7, #4]
 236 002e 9A68     		ldr	r2, [r3, #8]
 237 0030 FB68     		ldr	r3, [r7, #12]
ARM GAS  C:\Users\phamt\AppData\Local\Temp\ccJtbr4O.s 			page 5


 238 0032 5A60     		str	r2, [r3, #4]
 239              	.L10:
 240 0034 7B68     		ldr	r3, [r7, #4]
 241 0036 0022     		movs	r2, #0
 242 0038 1A61     		str	r2, [r3, #16]
 243 003a FB68     		ldr	r3, [r7, #12]
 244 003c 1B68     		ldr	r3, [r3]
 245 003e 5A1E     		subs	r2, r3, #1
 246 0040 FB68     		ldr	r3, [r7, #12]
 247 0042 1A60     		str	r2, [r3]
 248 0044 FB68     		ldr	r3, [r7, #12]
 249 0046 1B68     		ldr	r3, [r3]
 250 0048 1846     		mov	r0, r3
 251 004a 1437     		adds	r7, r7, #20
 252 004c BD46     		mov	sp, r7
 253              		@ sp needed
 254 004e 5DF8047B 		ldr	r7, [sp], #4
 255 0052 7047     		bx	lr
 257              		.ident	"GCC: (GNU Arm Embedded Toolchain 10.3-2021.10) 10.3.1 20210824 (release)"
ARM GAS  C:\Users\phamt\AppData\Local\Temp\ccJtbr4O.s 			page 6

