ARM GAS  C:\Users\phamt\AppData\Local\Temp\cciIbDOs.s 			page 1


   1              		.cpu cortex-m4
   2              		.arch armv7e-m
   3              		.fpu fpv4-sp-d16
   4              		.eabi_attribute 27, 1
   5              		.eabi_attribute 28, 1
   6              		.eabi_attribute 20, 1
   7              		.eabi_attribute 21, 1
   8              		.eabi_attribute 23, 3
   9              		.eabi_attribute 24, 1
  10              		.eabi_attribute 25, 1
  11              		.eabi_attribute 26, 1
  12              		.eabi_attribute 30, 6
  13              		.eabi_attribute 34, 1
  14              		.eabi_attribute 18, 4
  15              		.file	"heap_4.c"
  16              		.text
  17              		.section	.bss.ucHeap,"aw",%nobits
  18              		.align	2
  21              	ucHeap:
  22 0000 00000000 		.space	15360
  22      00000000 
  22      00000000 
  22      00000000 
  22      00000000 
  23              		.section	.rodata.xHeapStructSize,"a"
  24              		.align	2
  27              	xHeapStructSize:
  28 0000 08000000 		.word	8
  29              		.section	.bss.xStart,"aw",%nobits
  30              		.align	2
  33              	xStart:
  34 0000 00000000 		.space	8
  34      00000000 
  35              		.section	.bss.pxEnd,"aw",%nobits
  36              		.align	2
  39              	pxEnd:
  40 0000 00000000 		.space	4
  41              		.section	.bss.xFreeBytesRemaining,"aw",%nobits
  42              		.align	2
  45              	xFreeBytesRemaining:
  46 0000 00000000 		.space	4
  47              		.section	.bss.xMinimumEverFreeBytesRemaining,"aw",%nobits
  48              		.align	2
  51              	xMinimumEverFreeBytesRemaining:
  52 0000 00000000 		.space	4
  53              		.section	.bss.xNumberOfSuccessfulAllocations,"aw",%nobits
  54              		.align	2
  57              	xNumberOfSuccessfulAllocations:
  58 0000 00000000 		.space	4
  59              		.section	.bss.xNumberOfSuccessfulFrees,"aw",%nobits
  60              		.align	2
  63              	xNumberOfSuccessfulFrees:
  64 0000 00000000 		.space	4
  65              		.section	.text.pvPortMalloc,"ax",%progbits
  66              		.align	1
  67              		.global	pvPortMalloc
  68              		.syntax unified
ARM GAS  C:\Users\phamt\AppData\Local\Temp\cciIbDOs.s 			page 2


  69              		.thumb
  70              		.thumb_func
  72              	pvPortMalloc:
  73              		@ args = 0, pretend = 0, frame = 56
  74              		@ frame_needed = 1, uses_anonymous_args = 0
  75 0000 80B5     		push	{r7, lr}
  76 0002 8EB0     		sub	sp, sp, #56
  77 0004 00AF     		add	r7, sp, #0
  78 0006 7860     		str	r0, [r7, #4]
  79 0008 0023     		movs	r3, #0
  80 000a FB62     		str	r3, [r7, #44]
  81 000c 0023     		movs	r3, #0
  82 000e BB62     		str	r3, [r7, #40]
  83 0010 7B68     		ldr	r3, [r7, #4]
  84 0012 002B     		cmp	r3, #0
  85 0014 22D0     		beq	.L2
  86 0016 0823     		movs	r3, #8
  87 0018 DB43     		mvns	r3, r3
  88 001a 7A68     		ldr	r2, [r7, #4]
  89 001c 9A42     		cmp	r2, r3
  90 001e 1BD8     		bhi	.L3
  91 0020 0822     		movs	r2, #8
  92 0022 7B68     		ldr	r3, [r7, #4]
  93 0024 1344     		add	r3, r3, r2
  94 0026 7B60     		str	r3, [r7, #4]
  95 0028 7B68     		ldr	r3, [r7, #4]
  96 002a 03F00703 		and	r3, r3, #7
  97 002e 002B     		cmp	r3, #0
  98 0030 14D0     		beq	.L2
  99 0032 7B68     		ldr	r3, [r7, #4]
 100 0034 03F00703 		and	r3, r3, #7
 101 0038 C3F10803 		rsb	r3, r3, #8
 102 003c 7B62     		str	r3, [r7, #36]
 103 003e 7B6A     		ldr	r3, [r7, #36]
 104 0040 DB43     		mvns	r3, r3
 105 0042 7A68     		ldr	r2, [r7, #4]
 106 0044 9A42     		cmp	r2, r3
 107 0046 04D8     		bhi	.L4
 108 0048 7A68     		ldr	r2, [r7, #4]
 109 004a 7B6A     		ldr	r3, [r7, #36]
 110 004c 1344     		add	r3, r3, r2
 111 004e 7B60     		str	r3, [r7, #4]
 112 0050 04E0     		b	.L2
 113              	.L4:
 114 0052 0023     		movs	r3, #0
 115 0054 7B60     		str	r3, [r7, #4]
 116 0056 01E0     		b	.L2
 117              	.L3:
 118 0058 0023     		movs	r3, #0
 119 005a 7B60     		str	r3, [r7, #4]
 120              	.L2:
 121 005c FFF7FEFF 		bl	vTaskSuspendAll
 122 0060 784B     		ldr	r3, .L30
 123 0062 1B68     		ldr	r3, [r3]
 124 0064 002B     		cmp	r3, #0
 125 0066 01D1     		bne	.L5
 126 0068 FFF7FEFF 		bl	prvHeapInit
ARM GAS  C:\Users\phamt\AppData\Local\Temp\cciIbDOs.s 			page 3


 127              	.L5:
 128 006c 7B68     		ldr	r3, [r7, #4]
 129 006e 002B     		cmp	r3, #0
 130 0070 C0F2D180 		blt	.L6
 131 0074 7B68     		ldr	r3, [r7, #4]
 132 0076 002B     		cmp	r3, #0
 133 0078 00F0CD80 		beq	.L6
 134 007c 724B     		ldr	r3, .L30+4
 135 007e 1B68     		ldr	r3, [r3]
 136 0080 7A68     		ldr	r2, [r7, #4]
 137 0082 9A42     		cmp	r2, r3
 138 0084 00F2C780 		bhi	.L6
 139 0088 704B     		ldr	r3, .L30+8
 140 008a 3B63     		str	r3, [r7, #48]
 141 008c 6F4B     		ldr	r3, .L30+8
 142 008e 1B68     		ldr	r3, [r3]
 143 0090 7B63     		str	r3, [r7, #52]
 144 0092 7B6B     		ldr	r3, [r7, #52]
 145 0094 6E4A     		ldr	r2, .L30+12
 146 0096 9342     		cmp	r3, r2
 147 0098 05D3     		bcc	.L7
 148 009a 7B6B     		ldr	r3, [r7, #52]
 149 009c 6D4A     		ldr	r2, .L30+16
 150 009e 9342     		cmp	r3, r2
 151 00a0 01D8     		bhi	.L7
 152 00a2 0123     		movs	r3, #1
 153 00a4 00E0     		b	.L8
 154              	.L7:
 155 00a6 0023     		movs	r3, #0
 156              	.L8:
 157 00a8 002B     		cmp	r3, #0
 158 00aa 27D1     		bne	.L11
 159              		.syntax unified
 160              	@ 217 "FreeRTOS/portable/GCC/ARM_CM4F/portmacro.h" 1
 161 00ac 4FF05003 		   mov r3, #80                                              
 162 00b0 83F31188 	   msr basepri, r3                                         
 163 00b4 BFF36F8F 	   isb                                                     
 164 00b8 BFF34F8F 	   dsb                                                     
 165              	
 166              	@ 0 "" 2
 167              		.thumb
 168              		.syntax unified
 169 00bc FB61     		str	r3, [r7, #28]
 170 00be 00BF     		nop
 171              	.L10:
 172 00c0 FEE7     		b	.L10
 173              	.L16:
 174 00c2 7B6B     		ldr	r3, [r7, #52]
 175 00c4 3B63     		str	r3, [r7, #48]
 176 00c6 7B6B     		ldr	r3, [r7, #52]
 177 00c8 1B68     		ldr	r3, [r3]
 178 00ca 7B63     		str	r3, [r7, #52]
 179 00cc 7B6B     		ldr	r3, [r7, #52]
 180 00ce 604A     		ldr	r2, .L30+12
 181 00d0 9342     		cmp	r3, r2
 182 00d2 05D3     		bcc	.L12
 183 00d4 7B6B     		ldr	r3, [r7, #52]
ARM GAS  C:\Users\phamt\AppData\Local\Temp\cciIbDOs.s 			page 4


 184 00d6 5F4A     		ldr	r2, .L30+16
 185 00d8 9342     		cmp	r3, r2
 186 00da 01D8     		bhi	.L12
 187 00dc 0123     		movs	r3, #1
 188 00de 00E0     		b	.L13
 189              	.L12:
 190 00e0 0023     		movs	r3, #0
 191              	.L13:
 192 00e2 002B     		cmp	r3, #0
 193 00e4 0AD1     		bne	.L11
 194              		.syntax unified
 195              	@ 217 "FreeRTOS/portable/GCC/ARM_CM4F/portmacro.h" 1
 196 00e6 4FF05003 		   mov r3, #80                                              
 197 00ea 83F31188 	   msr basepri, r3                                         
 198 00ee BFF36F8F 	   isb                                                     
 199 00f2 BFF34F8F 	   dsb                                                     
 200              	
 201              	@ 0 "" 2
 202              		.thumb
 203              		.syntax unified
 204 00f6 BB61     		str	r3, [r7, #24]
 205 00f8 00BF     		nop
 206              	.L14:
 207 00fa FEE7     		b	.L14
 208              	.L11:
 209 00fc 7B6B     		ldr	r3, [r7, #52]
 210 00fe 5B68     		ldr	r3, [r3, #4]
 211 0100 7A68     		ldr	r2, [r7, #4]
 212 0102 9A42     		cmp	r2, r3
 213 0104 03D9     		bls	.L15
 214 0106 7B6B     		ldr	r3, [r7, #52]
 215 0108 1B68     		ldr	r3, [r3]
 216 010a 002B     		cmp	r3, #0
 217 010c D9D1     		bne	.L16
 218              	.L15:
 219 010e 4D4B     		ldr	r3, .L30
 220 0110 1B68     		ldr	r3, [r3]
 221 0112 7A6B     		ldr	r2, [r7, #52]
 222 0114 9A42     		cmp	r2, r3
 223 0116 7ED0     		beq	.L6
 224 0118 3B6B     		ldr	r3, [r7, #48]
 225 011a 1B68     		ldr	r3, [r3]
 226 011c 0822     		movs	r2, #8
 227 011e 1344     		add	r3, r3, r2
 228 0120 FB62     		str	r3, [r7, #44]
 229 0122 FB6A     		ldr	r3, [r7, #44]
 230 0124 4A4A     		ldr	r2, .L30+12
 231 0126 9342     		cmp	r3, r2
 232 0128 05D3     		bcc	.L17
 233 012a FB6A     		ldr	r3, [r7, #44]
 234 012c 494A     		ldr	r2, .L30+16
 235 012e 9342     		cmp	r3, r2
 236 0130 01D8     		bhi	.L17
 237 0132 0123     		movs	r3, #1
 238 0134 00E0     		b	.L18
 239              	.L17:
 240 0136 0023     		movs	r3, #0
ARM GAS  C:\Users\phamt\AppData\Local\Temp\cciIbDOs.s 			page 5


 241              	.L18:
 242 0138 002B     		cmp	r3, #0
 243 013a 0AD1     		bne	.L19
 244              		.syntax unified
 245              	@ 217 "FreeRTOS/portable/GCC/ARM_CM4F/portmacro.h" 1
 246 013c 4FF05003 		   mov r3, #80                                              
 247 0140 83F31188 	   msr basepri, r3                                         
 248 0144 BFF36F8F 	   isb                                                     
 249 0148 BFF34F8F 	   dsb                                                     
 250              	
 251              	@ 0 "" 2
 252              		.thumb
 253              		.syntax unified
 254 014c 7B61     		str	r3, [r7, #20]
 255 014e 00BF     		nop
 256              	.L20:
 257 0150 FEE7     		b	.L20
 258              	.L19:
 259 0152 7B6B     		ldr	r3, [r7, #52]
 260 0154 1A68     		ldr	r2, [r3]
 261 0156 3B6B     		ldr	r3, [r7, #48]
 262 0158 1A60     		str	r2, [r3]
 263 015a 7B6B     		ldr	r3, [r7, #52]
 264 015c 5B68     		ldr	r3, [r3, #4]
 265 015e 7A68     		ldr	r2, [r7, #4]
 266 0160 9A42     		cmp	r2, r3
 267 0162 0AD9     		bls	.L21
 268              		.syntax unified
 269              	@ 217 "FreeRTOS/portable/GCC/ARM_CM4F/portmacro.h" 1
 270 0164 4FF05003 		   mov r3, #80                                              
 271 0168 83F31188 	   msr basepri, r3                                         
 272 016c BFF36F8F 	   isb                                                     
 273 0170 BFF34F8F 	   dsb                                                     
 274              	
 275              	@ 0 "" 2
 276              		.thumb
 277              		.syntax unified
 278 0174 3B61     		str	r3, [r7, #16]
 279 0176 00BF     		nop
 280              	.L22:
 281 0178 FEE7     		b	.L22
 282              	.L21:
 283 017a 7B6B     		ldr	r3, [r7, #52]
 284 017c 5A68     		ldr	r2, [r3, #4]
 285 017e 7B68     		ldr	r3, [r7, #4]
 286 0180 D21A     		subs	r2, r2, r3
 287 0182 0823     		movs	r3, #8
 288 0184 5B00     		lsls	r3, r3, #1
 289 0186 9A42     		cmp	r2, r3
 290 0188 23D9     		bls	.L23
 291 018a 7A6B     		ldr	r2, [r7, #52]
 292 018c 7B68     		ldr	r3, [r7, #4]
 293 018e 1344     		add	r3, r3, r2
 294 0190 3B62     		str	r3, [r7, #32]
 295 0192 3B6A     		ldr	r3, [r7, #32]
 296 0194 03F00703 		and	r3, r3, #7
 297 0198 002B     		cmp	r3, #0
ARM GAS  C:\Users\phamt\AppData\Local\Temp\cciIbDOs.s 			page 6


 298 019a 0AD0     		beq	.L24
 299              		.syntax unified
 300              	@ 217 "FreeRTOS/portable/GCC/ARM_CM4F/portmacro.h" 1
 301 019c 4FF05003 		   mov r3, #80                                              
 302 01a0 83F31188 	   msr basepri, r3                                         
 303 01a4 BFF36F8F 	   isb                                                     
 304 01a8 BFF34F8F 	   dsb                                                     
 305              	
 306              	@ 0 "" 2
 307              		.thumb
 308              		.syntax unified
 309 01ac FB60     		str	r3, [r7, #12]
 310 01ae 00BF     		nop
 311              	.L25:
 312 01b0 FEE7     		b	.L25
 313              	.L24:
 314 01b2 7B6B     		ldr	r3, [r7, #52]
 315 01b4 5A68     		ldr	r2, [r3, #4]
 316 01b6 7B68     		ldr	r3, [r7, #4]
 317 01b8 D21A     		subs	r2, r2, r3
 318 01ba 3B6A     		ldr	r3, [r7, #32]
 319 01bc 5A60     		str	r2, [r3, #4]
 320 01be 7B6B     		ldr	r3, [r7, #52]
 321 01c0 7A68     		ldr	r2, [r7, #4]
 322 01c2 5A60     		str	r2, [r3, #4]
 323 01c4 3B6B     		ldr	r3, [r7, #48]
 324 01c6 1A68     		ldr	r2, [r3]
 325 01c8 3B6A     		ldr	r3, [r7, #32]
 326 01ca 1A60     		str	r2, [r3]
 327 01cc 3B6B     		ldr	r3, [r7, #48]
 328 01ce 3A6A     		ldr	r2, [r7, #32]
 329 01d0 1A60     		str	r2, [r3]
 330              	.L23:
 331 01d2 1D4B     		ldr	r3, .L30+4
 332 01d4 1A68     		ldr	r2, [r3]
 333 01d6 7B6B     		ldr	r3, [r7, #52]
 334 01d8 5B68     		ldr	r3, [r3, #4]
 335 01da D31A     		subs	r3, r2, r3
 336 01dc 1A4A     		ldr	r2, .L30+4
 337 01de 1360     		str	r3, [r2]
 338 01e0 194B     		ldr	r3, .L30+4
 339 01e2 1A68     		ldr	r2, [r3]
 340 01e4 1C4B     		ldr	r3, .L30+20
 341 01e6 1B68     		ldr	r3, [r3]
 342 01e8 9A42     		cmp	r2, r3
 343 01ea 03D2     		bcs	.L26
 344 01ec 164B     		ldr	r3, .L30+4
 345 01ee 1B68     		ldr	r3, [r3]
 346 01f0 194A     		ldr	r2, .L30+20
 347 01f2 1360     		str	r3, [r2]
 348              	.L26:
 349 01f4 7B6B     		ldr	r3, [r7, #52]
 350 01f6 5B68     		ldr	r3, [r3, #4]
 351 01f8 BB62     		str	r3, [r7, #40]
 352 01fa 7B6B     		ldr	r3, [r7, #52]
 353 01fc 5B68     		ldr	r3, [r3, #4]
 354 01fe 43F00042 		orr	r2, r3, #-2147483648
ARM GAS  C:\Users\phamt\AppData\Local\Temp\cciIbDOs.s 			page 7


 355 0202 7B6B     		ldr	r3, [r7, #52]
 356 0204 5A60     		str	r2, [r3, #4]
 357 0206 7B6B     		ldr	r3, [r7, #52]
 358 0208 0022     		movs	r2, #0
 359 020a 1A60     		str	r2, [r3]
 360 020c 134B     		ldr	r3, .L30+24
 361 020e 1B68     		ldr	r3, [r3]
 362 0210 0133     		adds	r3, r3, #1
 363 0212 124A     		ldr	r2, .L30+24
 364 0214 1360     		str	r3, [r2]
 365              	.L6:
 366 0216 FFF7FEFF 		bl	xTaskResumeAll
 367 021a FB6A     		ldr	r3, [r7, #44]
 368 021c 03F00703 		and	r3, r3, #7
 369 0220 002B     		cmp	r3, #0
 370 0222 0AD0     		beq	.L27
 371              		.syntax unified
 372              	@ 217 "FreeRTOS/portable/GCC/ARM_CM4F/portmacro.h" 1
 373 0224 4FF05003 		   mov r3, #80                                              
 374 0228 83F31188 	   msr basepri, r3                                         
 375 022c BFF36F8F 	   isb                                                     
 376 0230 BFF34F8F 	   dsb                                                     
 377              	
 378              	@ 0 "" 2
 379              		.thumb
 380              		.syntax unified
 381 0234 BB60     		str	r3, [r7, #8]
 382 0236 00BF     		nop
 383              	.L28:
 384 0238 FEE7     		b	.L28
 385              	.L27:
 386 023a FB6A     		ldr	r3, [r7, #44]
 387 023c 1846     		mov	r0, r3
 388 023e 3837     		adds	r7, r7, #56
 389 0240 BD46     		mov	sp, r7
 390              		@ sp needed
 391 0242 80BD     		pop	{r7, pc}
 392              	.L31:
 393              		.align	2
 394              	.L30:
 395 0244 00000000 		.word	pxEnd
 396 0248 00000000 		.word	xFreeBytesRemaining
 397 024c 00000000 		.word	xStart
 398 0250 00000000 		.word	ucHeap
 399 0254 FF3B0000 		.word	ucHeap+15359
 400 0258 00000000 		.word	xMinimumEverFreeBytesRemaining
 401 025c 00000000 		.word	xNumberOfSuccessfulAllocations
 403              		.section	.text.vPortFree,"ax",%progbits
 404              		.align	1
 405              		.global	vPortFree
 406              		.syntax unified
 407              		.thumb
 408              		.thumb_func
 410              	vPortFree:
 411              		@ args = 0, pretend = 0, frame = 32
 412              		@ frame_needed = 1, uses_anonymous_args = 0
 413 0000 80B5     		push	{r7, lr}
ARM GAS  C:\Users\phamt\AppData\Local\Temp\cciIbDOs.s 			page 8


 414 0002 88B0     		sub	sp, sp, #32
 415 0004 00AF     		add	r7, sp, #0
 416 0006 7860     		str	r0, [r7, #4]
 417 0008 7B68     		ldr	r3, [r7, #4]
 418 000a FB61     		str	r3, [r7, #28]
 419 000c 7B68     		ldr	r3, [r7, #4]
 420 000e 002B     		cmp	r3, #0
 421 0010 61D0     		beq	.L42
 422 0012 0823     		movs	r3, #8
 423 0014 5B42     		rsbs	r3, r3, #0
 424 0016 FA69     		ldr	r2, [r7, #28]
 425 0018 1344     		add	r3, r3, r2
 426 001a FB61     		str	r3, [r7, #28]
 427 001c FB69     		ldr	r3, [r7, #28]
 428 001e BB61     		str	r3, [r7, #24]
 429 0020 BB69     		ldr	r3, [r7, #24]
 430 0022 2F4A     		ldr	r2, .L43
 431 0024 9342     		cmp	r3, r2
 432 0026 05D3     		bcc	.L34
 433 0028 BB69     		ldr	r3, [r7, #24]
 434 002a 2E4A     		ldr	r2, .L43+4
 435 002c 9342     		cmp	r3, r2
 436 002e 01D8     		bhi	.L34
 437 0030 0123     		movs	r3, #1
 438 0032 00E0     		b	.L35
 439              	.L34:
 440 0034 0023     		movs	r3, #0
 441              	.L35:
 442 0036 002B     		cmp	r3, #0
 443 0038 0AD1     		bne	.L36
 444              		.syntax unified
 445              	@ 217 "FreeRTOS/portable/GCC/ARM_CM4F/portmacro.h" 1
 446 003a 4FF05003 		   mov r3, #80                                              
 447 003e 83F31188 	   msr basepri, r3                                         
 448 0042 BFF36F8F 	   isb                                                     
 449 0046 BFF34F8F 	   dsb                                                     
 450              	
 451              	@ 0 "" 2
 452              		.thumb
 453              		.syntax unified
 454 004a 7B61     		str	r3, [r7, #20]
 455 004c 00BF     		nop
 456              	.L37:
 457 004e FEE7     		b	.L37
 458              	.L36:
 459 0050 BB69     		ldr	r3, [r7, #24]
 460 0052 5B68     		ldr	r3, [r3, #4]
 461 0054 002B     		cmp	r3, #0
 462 0056 0ADB     		blt	.L38
 463              		.syntax unified
 464              	@ 217 "FreeRTOS/portable/GCC/ARM_CM4F/portmacro.h" 1
 465 0058 4FF05003 		   mov r3, #80                                              
 466 005c 83F31188 	   msr basepri, r3                                         
 467 0060 BFF36F8F 	   isb                                                     
 468 0064 BFF34F8F 	   dsb                                                     
 469              	
 470              	@ 0 "" 2
ARM GAS  C:\Users\phamt\AppData\Local\Temp\cciIbDOs.s 			page 9


 471              		.thumb
 472              		.syntax unified
 473 0068 3B61     		str	r3, [r7, #16]
 474 006a 00BF     		nop
 475              	.L39:
 476 006c FEE7     		b	.L39
 477              	.L38:
 478 006e BB69     		ldr	r3, [r7, #24]
 479 0070 1B68     		ldr	r3, [r3]
 480 0072 002B     		cmp	r3, #0
 481 0074 0AD0     		beq	.L40
 482              		.syntax unified
 483              	@ 217 "FreeRTOS/portable/GCC/ARM_CM4F/portmacro.h" 1
 484 0076 4FF05003 		   mov r3, #80                                              
 485 007a 83F31188 	   msr basepri, r3                                         
 486 007e BFF36F8F 	   isb                                                     
 487 0082 BFF34F8F 	   dsb                                                     
 488              	
 489              	@ 0 "" 2
 490              		.thumb
 491              		.syntax unified
 492 0086 FB60     		str	r3, [r7, #12]
 493 0088 00BF     		nop
 494              	.L41:
 495 008a FEE7     		b	.L41
 496              	.L40:
 497 008c BB69     		ldr	r3, [r7, #24]
 498 008e 5B68     		ldr	r3, [r3, #4]
 499 0090 DB0F     		lsrs	r3, r3, #31
 500 0092 03F00103 		and	r3, r3, #1
 501 0096 DBB2     		uxtb	r3, r3
 502 0098 002B     		cmp	r3, #0
 503 009a 1CD0     		beq	.L42
 504 009c BB69     		ldr	r3, [r7, #24]
 505 009e 1B68     		ldr	r3, [r3]
 506 00a0 002B     		cmp	r3, #0
 507 00a2 18D1     		bne	.L42
 508 00a4 BB69     		ldr	r3, [r7, #24]
 509 00a6 5B68     		ldr	r3, [r3, #4]
 510 00a8 23F00042 		bic	r2, r3, #-2147483648
 511 00ac BB69     		ldr	r3, [r7, #24]
 512 00ae 5A60     		str	r2, [r3, #4]
 513 00b0 FFF7FEFF 		bl	vTaskSuspendAll
 514 00b4 BB69     		ldr	r3, [r7, #24]
 515 00b6 5A68     		ldr	r2, [r3, #4]
 516 00b8 0B4B     		ldr	r3, .L43+8
 517 00ba 1B68     		ldr	r3, [r3]
 518 00bc 1344     		add	r3, r3, r2
 519 00be 0A4A     		ldr	r2, .L43+8
 520 00c0 1360     		str	r3, [r2]
 521 00c2 B869     		ldr	r0, [r7, #24]
 522 00c4 FFF7FEFF 		bl	prvInsertBlockIntoFreeList
 523 00c8 084B     		ldr	r3, .L43+12
 524 00ca 1B68     		ldr	r3, [r3]
 525 00cc 0133     		adds	r3, r3, #1
 526 00ce 074A     		ldr	r2, .L43+12
 527 00d0 1360     		str	r3, [r2]
ARM GAS  C:\Users\phamt\AppData\Local\Temp\cciIbDOs.s 			page 10


 528 00d2 FFF7FEFF 		bl	xTaskResumeAll
 529              	.L42:
 530 00d6 00BF     		nop
 531 00d8 2037     		adds	r7, r7, #32
 532 00da BD46     		mov	sp, r7
 533              		@ sp needed
 534 00dc 80BD     		pop	{r7, pc}
 535              	.L44:
 536 00de 00BF     		.align	2
 537              	.L43:
 538 00e0 00000000 		.word	ucHeap
 539 00e4 FF3B0000 		.word	ucHeap+15359
 540 00e8 00000000 		.word	xFreeBytesRemaining
 541 00ec 00000000 		.word	xNumberOfSuccessfulFrees
 543              		.section	.text.xPortGetFreeHeapSize,"ax",%progbits
 544              		.align	1
 545              		.global	xPortGetFreeHeapSize
 546              		.syntax unified
 547              		.thumb
 548              		.thumb_func
 550              	xPortGetFreeHeapSize:
 551              		@ args = 0, pretend = 0, frame = 0
 552              		@ frame_needed = 1, uses_anonymous_args = 0
 553              		@ link register save eliminated.
 554 0000 80B4     		push	{r7}
 555 0002 00AF     		add	r7, sp, #0
 556 0004 034B     		ldr	r3, .L47
 557 0006 1B68     		ldr	r3, [r3]
 558 0008 1846     		mov	r0, r3
 559 000a BD46     		mov	sp, r7
 560              		@ sp needed
 561 000c 5DF8047B 		ldr	r7, [sp], #4
 562 0010 7047     		bx	lr
 563              	.L48:
 564 0012 00BF     		.align	2
 565              	.L47:
 566 0014 00000000 		.word	xFreeBytesRemaining
 568              		.section	.text.xPortGetMinimumEverFreeHeapSize,"ax",%progbits
 569              		.align	1
 570              		.global	xPortGetMinimumEverFreeHeapSize
 571              		.syntax unified
 572              		.thumb
 573              		.thumb_func
 575              	xPortGetMinimumEverFreeHeapSize:
 576              		@ args = 0, pretend = 0, frame = 0
 577              		@ frame_needed = 1, uses_anonymous_args = 0
 578              		@ link register save eliminated.
 579 0000 80B4     		push	{r7}
 580 0002 00AF     		add	r7, sp, #0
 581 0004 034B     		ldr	r3, .L51
 582 0006 1B68     		ldr	r3, [r3]
 583 0008 1846     		mov	r0, r3
 584 000a BD46     		mov	sp, r7
 585              		@ sp needed
 586 000c 5DF8047B 		ldr	r7, [sp], #4
 587 0010 7047     		bx	lr
 588              	.L52:
ARM GAS  C:\Users\phamt\AppData\Local\Temp\cciIbDOs.s 			page 11


 589 0012 00BF     		.align	2
 590              	.L51:
 591 0014 00000000 		.word	xMinimumEverFreeBytesRemaining
 593              		.section	.text.vPortInitialiseBlocks,"ax",%progbits
 594              		.align	1
 595              		.global	vPortInitialiseBlocks
 596              		.syntax unified
 597              		.thumb
 598              		.thumb_func
 600              	vPortInitialiseBlocks:
 601              		@ args = 0, pretend = 0, frame = 0
 602              		@ frame_needed = 1, uses_anonymous_args = 0
 603              		@ link register save eliminated.
 604 0000 80B4     		push	{r7}
 605 0002 00AF     		add	r7, sp, #0
 606 0004 00BF     		nop
 607 0006 BD46     		mov	sp, r7
 608              		@ sp needed
 609 0008 5DF8047B 		ldr	r7, [sp], #4
 610 000c 7047     		bx	lr
 612              		.section	.text.pvPortCalloc,"ax",%progbits
 613              		.align	1
 614              		.global	pvPortCalloc
 615              		.syntax unified
 616              		.thumb
 617              		.thumb_func
 619              	pvPortCalloc:
 620              		@ args = 0, pretend = 0, frame = 16
 621              		@ frame_needed = 1, uses_anonymous_args = 0
 622 0000 80B5     		push	{r7, lr}
 623 0002 84B0     		sub	sp, sp, #16
 624 0004 00AF     		add	r7, sp, #0
 625 0006 7860     		str	r0, [r7, #4]
 626 0008 3960     		str	r1, [r7]
 627 000a 0023     		movs	r3, #0
 628 000c FB60     		str	r3, [r7, #12]
 629 000e 7B68     		ldr	r3, [r7, #4]
 630 0010 002B     		cmp	r3, #0
 631 0012 09D0     		beq	.L55
 632 0014 4FF0FF32 		mov	r2, #-1
 633 0018 7B68     		ldr	r3, [r7, #4]
 634 001a B2FBF3F3 		udiv	r3, r2, r3
 635 001e 3A68     		ldr	r2, [r7]
 636 0020 9A42     		cmp	r2, r3
 637 0022 01D9     		bls	.L55
 638 0024 0123     		movs	r3, #1
 639 0026 00E0     		b	.L56
 640              	.L55:
 641 0028 0023     		movs	r3, #0
 642              	.L56:
 643 002a 002B     		cmp	r3, #0
 644 002c 13D1     		bne	.L57
 645 002e 7B68     		ldr	r3, [r7, #4]
 646 0030 3A68     		ldr	r2, [r7]
 647 0032 02FB03F3 		mul	r3, r2, r3
 648 0036 1846     		mov	r0, r3
 649 0038 FFF7FEFF 		bl	pvPortMalloc
ARM GAS  C:\Users\phamt\AppData\Local\Temp\cciIbDOs.s 			page 12


 650 003c F860     		str	r0, [r7, #12]
 651 003e FB68     		ldr	r3, [r7, #12]
 652 0040 002B     		cmp	r3, #0
 653 0042 08D0     		beq	.L57
 654 0044 7B68     		ldr	r3, [r7, #4]
 655 0046 3A68     		ldr	r2, [r7]
 656 0048 02FB03F3 		mul	r3, r2, r3
 657 004c 1A46     		mov	r2, r3
 658 004e 0021     		movs	r1, #0
 659 0050 F868     		ldr	r0, [r7, #12]
 660 0052 FFF7FEFF 		bl	memset
 661              	.L57:
 662 0056 FB68     		ldr	r3, [r7, #12]
 663 0058 1846     		mov	r0, r3
 664 005a 1037     		adds	r7, r7, #16
 665 005c BD46     		mov	sp, r7
 666              		@ sp needed
 667 005e 80BD     		pop	{r7, pc}
 669              		.section	.text.prvHeapInit,"ax",%progbits
 670              		.align	1
 671              		.syntax unified
 672              		.thumb
 673              		.thumb_func
 675              	prvHeapInit:
 676              		@ args = 0, pretend = 0, frame = 16
 677              		@ frame_needed = 1, uses_anonymous_args = 0
 678              		@ link register save eliminated.
 679 0000 80B4     		push	{r7}
 680 0002 85B0     		sub	sp, sp, #20
 681 0004 00AF     		add	r7, sp, #0
 682 0006 4FF47053 		mov	r3, #15360
 683 000a BB60     		str	r3, [r7, #8]
 684 000c 244B     		ldr	r3, .L61
 685 000e FB60     		str	r3, [r7, #12]
 686 0010 FB68     		ldr	r3, [r7, #12]
 687 0012 03F00703 		and	r3, r3, #7
 688 0016 002B     		cmp	r3, #0
 689 0018 0CD0     		beq	.L60
 690 001a FB68     		ldr	r3, [r7, #12]
 691 001c 0733     		adds	r3, r3, #7
 692 001e FB60     		str	r3, [r7, #12]
 693 0020 FB68     		ldr	r3, [r7, #12]
 694 0022 23F00703 		bic	r3, r3, #7
 695 0026 FB60     		str	r3, [r7, #12]
 696 0028 BA68     		ldr	r2, [r7, #8]
 697 002a FB68     		ldr	r3, [r7, #12]
 698 002c D31A     		subs	r3, r2, r3
 699 002e 1C4A     		ldr	r2, .L61
 700 0030 1344     		add	r3, r3, r2
 701 0032 BB60     		str	r3, [r7, #8]
 702              	.L60:
 703 0034 FB68     		ldr	r3, [r7, #12]
 704 0036 1B4A     		ldr	r2, .L61+4
 705 0038 1360     		str	r3, [r2]
 706 003a 1A4B     		ldr	r3, .L61+4
 707 003c 0022     		movs	r2, #0
 708 003e 5A60     		str	r2, [r3, #4]
ARM GAS  C:\Users\phamt\AppData\Local\Temp\cciIbDOs.s 			page 13


 709 0040 FA68     		ldr	r2, [r7, #12]
 710 0042 BB68     		ldr	r3, [r7, #8]
 711 0044 1344     		add	r3, r3, r2
 712 0046 7B60     		str	r3, [r7, #4]
 713 0048 0822     		movs	r2, #8
 714 004a 7B68     		ldr	r3, [r7, #4]
 715 004c 9B1A     		subs	r3, r3, r2
 716 004e 7B60     		str	r3, [r7, #4]
 717 0050 7B68     		ldr	r3, [r7, #4]
 718 0052 23F00703 		bic	r3, r3, #7
 719 0056 7B60     		str	r3, [r7, #4]
 720 0058 7B68     		ldr	r3, [r7, #4]
 721 005a 134A     		ldr	r2, .L61+8
 722 005c 1360     		str	r3, [r2]
 723 005e 124B     		ldr	r3, .L61+8
 724 0060 1B68     		ldr	r3, [r3]
 725 0062 0022     		movs	r2, #0
 726 0064 5A60     		str	r2, [r3, #4]
 727 0066 104B     		ldr	r3, .L61+8
 728 0068 1B68     		ldr	r3, [r3]
 729 006a 0022     		movs	r2, #0
 730 006c 1A60     		str	r2, [r3]
 731 006e FB68     		ldr	r3, [r7, #12]
 732 0070 3B60     		str	r3, [r7]
 733 0072 3B68     		ldr	r3, [r7]
 734 0074 7A68     		ldr	r2, [r7, #4]
 735 0076 D21A     		subs	r2, r2, r3
 736 0078 3B68     		ldr	r3, [r7]
 737 007a 5A60     		str	r2, [r3, #4]
 738 007c 0A4B     		ldr	r3, .L61+8
 739 007e 1A68     		ldr	r2, [r3]
 740 0080 3B68     		ldr	r3, [r7]
 741 0082 1A60     		str	r2, [r3]
 742 0084 3B68     		ldr	r3, [r7]
 743 0086 5B68     		ldr	r3, [r3, #4]
 744 0088 084A     		ldr	r2, .L61+12
 745 008a 1360     		str	r3, [r2]
 746 008c 3B68     		ldr	r3, [r7]
 747 008e 5B68     		ldr	r3, [r3, #4]
 748 0090 074A     		ldr	r2, .L61+16
 749 0092 1360     		str	r3, [r2]
 750 0094 00BF     		nop
 751 0096 1437     		adds	r7, r7, #20
 752 0098 BD46     		mov	sp, r7
 753              		@ sp needed
 754 009a 5DF8047B 		ldr	r7, [sp], #4
 755 009e 7047     		bx	lr
 756              	.L62:
 757              		.align	2
 758              	.L61:
 759 00a0 00000000 		.word	ucHeap
 760 00a4 00000000 		.word	xStart
 761 00a8 00000000 		.word	pxEnd
 762 00ac 00000000 		.word	xMinimumEverFreeBytesRemaining
 763 00b0 00000000 		.word	xFreeBytesRemaining
 765              		.section	.text.prvInsertBlockIntoFreeList,"ax",%progbits
 766              		.align	1
ARM GAS  C:\Users\phamt\AppData\Local\Temp\cciIbDOs.s 			page 14


 767              		.syntax unified
 768              		.thumb
 769              		.thumb_func
 771              	prvInsertBlockIntoFreeList:
 772              		@ args = 0, pretend = 0, frame = 24
 773              		@ frame_needed = 1, uses_anonymous_args = 0
 774              		@ link register save eliminated.
 775 0000 80B4     		push	{r7}
 776 0002 87B0     		sub	sp, sp, #28
 777 0004 00AF     		add	r7, sp, #0
 778 0006 7860     		str	r0, [r7, #4]
 779 0008 364B     		ldr	r3, .L76
 780 000a 7B61     		str	r3, [r7, #20]
 781 000c 02E0     		b	.L64
 782              	.L65:
 783 000e 7B69     		ldr	r3, [r7, #20]
 784 0010 1B68     		ldr	r3, [r3]
 785 0012 7B61     		str	r3, [r7, #20]
 786              	.L64:
 787 0014 7B69     		ldr	r3, [r7, #20]
 788 0016 1B68     		ldr	r3, [r3]
 789 0018 7A68     		ldr	r2, [r7, #4]
 790 001a 9A42     		cmp	r2, r3
 791 001c F7D8     		bhi	.L65
 792 001e 7B69     		ldr	r3, [r7, #20]
 793 0020 304A     		ldr	r2, .L76
 794 0022 9342     		cmp	r3, r2
 795 0024 17D0     		beq	.L66
 796 0026 7B69     		ldr	r3, [r7, #20]
 797 0028 2F4A     		ldr	r2, .L76+4
 798 002a 9342     		cmp	r3, r2
 799 002c 05D3     		bcc	.L67
 800 002e 7B69     		ldr	r3, [r7, #20]
 801 0030 2E4A     		ldr	r2, .L76+8
 802 0032 9342     		cmp	r3, r2
 803 0034 01D8     		bhi	.L67
 804 0036 0123     		movs	r3, #1
 805 0038 00E0     		b	.L68
 806              	.L67:
 807 003a 0023     		movs	r3, #0
 808              	.L68:
 809 003c 002B     		cmp	r3, #0
 810 003e 0AD1     		bne	.L66
 811              		.syntax unified
 812              	@ 217 "FreeRTOS/portable/GCC/ARM_CM4F/portmacro.h" 1
 813 0040 4FF05003 		   mov r3, #80                                              
 814 0044 83F31188 	   msr basepri, r3                                         
 815 0048 BFF36F8F 	   isb                                                     
 816 004c BFF34F8F 	   dsb                                                     
 817              	
 818              	@ 0 "" 2
 819              		.thumb
 820              		.syntax unified
 821 0050 FB60     		str	r3, [r7, #12]
 822 0052 00BF     		nop
 823              	.L69:
 824 0054 FEE7     		b	.L69
ARM GAS  C:\Users\phamt\AppData\Local\Temp\cciIbDOs.s 			page 15


 825              	.L66:
 826 0056 7B69     		ldr	r3, [r7, #20]
 827 0058 3B61     		str	r3, [r7, #16]
 828 005a 7B69     		ldr	r3, [r7, #20]
 829 005c 5B68     		ldr	r3, [r3, #4]
 830 005e 3A69     		ldr	r2, [r7, #16]
 831 0060 1344     		add	r3, r3, r2
 832 0062 7A68     		ldr	r2, [r7, #4]
 833 0064 9A42     		cmp	r2, r3
 834 0066 08D1     		bne	.L70
 835 0068 7B69     		ldr	r3, [r7, #20]
 836 006a 5A68     		ldr	r2, [r3, #4]
 837 006c 7B68     		ldr	r3, [r7, #4]
 838 006e 5B68     		ldr	r3, [r3, #4]
 839 0070 1A44     		add	r2, r2, r3
 840 0072 7B69     		ldr	r3, [r7, #20]
 841 0074 5A60     		str	r2, [r3, #4]
 842 0076 7B69     		ldr	r3, [r7, #20]
 843 0078 7B60     		str	r3, [r7, #4]
 844              	.L70:
 845 007a 7B68     		ldr	r3, [r7, #4]
 846 007c 3B61     		str	r3, [r7, #16]
 847 007e 7B68     		ldr	r3, [r7, #4]
 848 0080 5B68     		ldr	r3, [r3, #4]
 849 0082 3A69     		ldr	r2, [r7, #16]
 850 0084 1A44     		add	r2, r2, r3
 851 0086 7B69     		ldr	r3, [r7, #20]
 852 0088 1B68     		ldr	r3, [r3]
 853 008a 9A42     		cmp	r2, r3
 854 008c 18D1     		bne	.L71
 855 008e 7B69     		ldr	r3, [r7, #20]
 856 0090 1A68     		ldr	r2, [r3]
 857 0092 174B     		ldr	r3, .L76+12
 858 0094 1B68     		ldr	r3, [r3]
 859 0096 9A42     		cmp	r2, r3
 860 0098 0DD0     		beq	.L72
 861 009a 7B68     		ldr	r3, [r7, #4]
 862 009c 5A68     		ldr	r2, [r3, #4]
 863 009e 7B69     		ldr	r3, [r7, #20]
 864 00a0 1B68     		ldr	r3, [r3]
 865 00a2 5B68     		ldr	r3, [r3, #4]
 866 00a4 1A44     		add	r2, r2, r3
 867 00a6 7B68     		ldr	r3, [r7, #4]
 868 00a8 5A60     		str	r2, [r3, #4]
 869 00aa 7B69     		ldr	r3, [r7, #20]
 870 00ac 1B68     		ldr	r3, [r3]
 871 00ae 1A68     		ldr	r2, [r3]
 872 00b0 7B68     		ldr	r3, [r7, #4]
 873 00b2 1A60     		str	r2, [r3]
 874 00b4 08E0     		b	.L73
 875              	.L72:
 876 00b6 0E4B     		ldr	r3, .L76+12
 877 00b8 1A68     		ldr	r2, [r3]
 878 00ba 7B68     		ldr	r3, [r7, #4]
 879 00bc 1A60     		str	r2, [r3]
 880 00be 03E0     		b	.L73
 881              	.L71:
ARM GAS  C:\Users\phamt\AppData\Local\Temp\cciIbDOs.s 			page 16


 882 00c0 7B69     		ldr	r3, [r7, #20]
 883 00c2 1A68     		ldr	r2, [r3]
 884 00c4 7B68     		ldr	r3, [r7, #4]
 885 00c6 1A60     		str	r2, [r3]
 886              	.L73:
 887 00c8 7A69     		ldr	r2, [r7, #20]
 888 00ca 7B68     		ldr	r3, [r7, #4]
 889 00cc 9A42     		cmp	r2, r3
 890 00ce 02D0     		beq	.L75
 891 00d0 7B69     		ldr	r3, [r7, #20]
 892 00d2 7A68     		ldr	r2, [r7, #4]
 893 00d4 1A60     		str	r2, [r3]
 894              	.L75:
 895 00d6 00BF     		nop
 896 00d8 1C37     		adds	r7, r7, #28
 897 00da BD46     		mov	sp, r7
 898              		@ sp needed
 899 00dc 5DF8047B 		ldr	r7, [sp], #4
 900 00e0 7047     		bx	lr
 901              	.L77:
 902 00e2 00BF     		.align	2
 903              	.L76:
 904 00e4 00000000 		.word	xStart
 905 00e8 00000000 		.word	ucHeap
 906 00ec FF3B0000 		.word	ucHeap+15359
 907 00f0 00000000 		.word	pxEnd
 909              		.section	.text.vPortGetHeapStats,"ax",%progbits
 910              		.align	1
 911              		.global	vPortGetHeapStats
 912              		.syntax unified
 913              		.thumb
 914              		.thumb_func
 916              	vPortGetHeapStats:
 917              		@ args = 0, pretend = 0, frame = 24
 918              		@ frame_needed = 1, uses_anonymous_args = 0
 919 0000 80B5     		push	{r7, lr}
 920 0002 86B0     		sub	sp, sp, #24
 921 0004 00AF     		add	r7, sp, #0
 922 0006 7860     		str	r0, [r7, #4]
 923 0008 0023     		movs	r3, #0
 924 000a 3B61     		str	r3, [r7, #16]
 925 000c 0023     		movs	r3, #0
 926 000e FB60     		str	r3, [r7, #12]
 927 0010 4FF0FF33 		mov	r3, #-1
 928 0014 BB60     		str	r3, [r7, #8]
 929 0016 FFF7FEFF 		bl	vTaskSuspendAll
 930 001a 224B     		ldr	r3, .L84
 931 001c 1B68     		ldr	r3, [r3]
 932 001e 7B61     		str	r3, [r7, #20]
 933 0020 7B69     		ldr	r3, [r7, #20]
 934 0022 002B     		cmp	r3, #0
 935 0024 1BD0     		beq	.L79
 936 0026 15E0     		b	.L80
 937              	.L83:
 938 0028 3B69     		ldr	r3, [r7, #16]
 939 002a 0133     		adds	r3, r3, #1
 940 002c 3B61     		str	r3, [r7, #16]
ARM GAS  C:\Users\phamt\AppData\Local\Temp\cciIbDOs.s 			page 17


 941 002e 7B69     		ldr	r3, [r7, #20]
 942 0030 5B68     		ldr	r3, [r3, #4]
 943 0032 FA68     		ldr	r2, [r7, #12]
 944 0034 9A42     		cmp	r2, r3
 945 0036 02D2     		bcs	.L81
 946 0038 7B69     		ldr	r3, [r7, #20]
 947 003a 5B68     		ldr	r3, [r3, #4]
 948 003c FB60     		str	r3, [r7, #12]
 949              	.L81:
 950 003e 7B69     		ldr	r3, [r7, #20]
 951 0040 5B68     		ldr	r3, [r3, #4]
 952 0042 BA68     		ldr	r2, [r7, #8]
 953 0044 9A42     		cmp	r2, r3
 954 0046 02D9     		bls	.L82
 955 0048 7B69     		ldr	r3, [r7, #20]
 956 004a 5B68     		ldr	r3, [r3, #4]
 957 004c BB60     		str	r3, [r7, #8]
 958              	.L82:
 959 004e 7B69     		ldr	r3, [r7, #20]
 960 0050 1B68     		ldr	r3, [r3]
 961 0052 7B61     		str	r3, [r7, #20]
 962              	.L80:
 963 0054 144B     		ldr	r3, .L84+4
 964 0056 1B68     		ldr	r3, [r3]
 965 0058 7A69     		ldr	r2, [r7, #20]
 966 005a 9A42     		cmp	r2, r3
 967 005c E4D1     		bne	.L83
 968              	.L79:
 969 005e FFF7FEFF 		bl	xTaskResumeAll
 970 0062 7B68     		ldr	r3, [r7, #4]
 971 0064 FA68     		ldr	r2, [r7, #12]
 972 0066 5A60     		str	r2, [r3, #4]
 973 0068 7B68     		ldr	r3, [r7, #4]
 974 006a BA68     		ldr	r2, [r7, #8]
 975 006c 9A60     		str	r2, [r3, #8]
 976 006e 7B68     		ldr	r3, [r7, #4]
 977 0070 3A69     		ldr	r2, [r7, #16]
 978 0072 DA60     		str	r2, [r3, #12]
 979 0074 FFF7FEFF 		bl	vPortEnterCritical
 980 0078 0C4B     		ldr	r3, .L84+8
 981 007a 1A68     		ldr	r2, [r3]
 982 007c 7B68     		ldr	r3, [r7, #4]
 983 007e 1A60     		str	r2, [r3]
 984 0080 0B4B     		ldr	r3, .L84+12
 985 0082 1A68     		ldr	r2, [r3]
 986 0084 7B68     		ldr	r3, [r7, #4]
 987 0086 5A61     		str	r2, [r3, #20]
 988 0088 0A4B     		ldr	r3, .L84+16
 989 008a 1A68     		ldr	r2, [r3]
 990 008c 7B68     		ldr	r3, [r7, #4]
 991 008e 9A61     		str	r2, [r3, #24]
 992 0090 094B     		ldr	r3, .L84+20
 993 0092 1A68     		ldr	r2, [r3]
 994 0094 7B68     		ldr	r3, [r7, #4]
 995 0096 1A61     		str	r2, [r3, #16]
 996 0098 FFF7FEFF 		bl	vPortExitCritical
 997 009c 00BF     		nop
ARM GAS  C:\Users\phamt\AppData\Local\Temp\cciIbDOs.s 			page 18


 998 009e 1837     		adds	r7, r7, #24
 999 00a0 BD46     		mov	sp, r7
 1000              		@ sp needed
 1001 00a2 80BD     		pop	{r7, pc}
 1002              	.L85:
 1003              		.align	2
 1004              	.L84:
 1005 00a4 00000000 		.word	xStart
 1006 00a8 00000000 		.word	pxEnd
 1007 00ac 00000000 		.word	xFreeBytesRemaining
 1008 00b0 00000000 		.word	xNumberOfSuccessfulAllocations
 1009 00b4 00000000 		.word	xNumberOfSuccessfulFrees
 1010 00b8 00000000 		.word	xMinimumEverFreeBytesRemaining
 1012              		.section	.text.vPortHeapResetState,"ax",%progbits
 1013              		.align	1
 1014              		.global	vPortHeapResetState
 1015              		.syntax unified
 1016              		.thumb
 1017              		.thumb_func
 1019              	vPortHeapResetState:
 1020              		@ args = 0, pretend = 0, frame = 0
 1021              		@ frame_needed = 1, uses_anonymous_args = 0
 1022              		@ link register save eliminated.
 1023 0000 80B4     		push	{r7}
 1024 0002 00AF     		add	r7, sp, #0
 1025 0004 094B     		ldr	r3, .L87
 1026 0006 0022     		movs	r2, #0
 1027 0008 1A60     		str	r2, [r3]
 1028 000a 094B     		ldr	r3, .L87+4
 1029 000c 0022     		movs	r2, #0
 1030 000e 1A60     		str	r2, [r3]
 1031 0010 084B     		ldr	r3, .L87+8
 1032 0012 0022     		movs	r2, #0
 1033 0014 1A60     		str	r2, [r3]
 1034 0016 084B     		ldr	r3, .L87+12
 1035 0018 0022     		movs	r2, #0
 1036 001a 1A60     		str	r2, [r3]
 1037 001c 074B     		ldr	r3, .L87+16
 1038 001e 0022     		movs	r2, #0
 1039 0020 1A60     		str	r2, [r3]
 1040 0022 00BF     		nop
 1041 0024 BD46     		mov	sp, r7
 1042              		@ sp needed
 1043 0026 5DF8047B 		ldr	r7, [sp], #4
 1044 002a 7047     		bx	lr
 1045              	.L88:
 1046              		.align	2
 1047              	.L87:
 1048 002c 00000000 		.word	pxEnd
 1049 0030 00000000 		.word	xFreeBytesRemaining
 1050 0034 00000000 		.word	xMinimumEverFreeBytesRemaining
 1051 0038 00000000 		.word	xNumberOfSuccessfulAllocations
 1052 003c 00000000 		.word	xNumberOfSuccessfulFrees
 1054              		.ident	"GCC: (GNU Arm Embedded Toolchain 10.3-2021.10) 10.3.1 20210824 (release)"
ARM GAS  C:\Users\phamt\AppData\Local\Temp\cciIbDOs.s 			page 19

