ARM GAS  C:\Users\phamt\AppData\Local\Temp\ccddHHHp.s 			page 1


   1              		.cpu cortex-m4
   2              		.arch armv7e-m
   3              		.fpu fpv4-sp-d16
   4              		.eabi_attribute 27, 1
   5              		.eabi_attribute 28, 1
   6              		.eabi_attribute 20, 1
   7              		.eabi_attribute 21, 1
   8              		.eabi_attribute 23, 3
   9              		.eabi_attribute 24, 1
  10              		.eabi_attribute 25, 1
  11              		.eabi_attribute 26, 1
  12              		.eabi_attribute 30, 6
  13              		.eabi_attribute 34, 1
  14              		.eabi_attribute 18, 4
  15              		.file	"main.c"
  16              		.text
  17              		.section	.text.__NVIC_SetPriorityGrouping,"ax",%progbits
  18              		.align	1
  19              		.syntax unified
  20              		.thumb
  21              		.thumb_func
  23              	__NVIC_SetPriorityGrouping:
  24              		@ args = 0, pretend = 0, frame = 16
  25              		@ frame_needed = 1, uses_anonymous_args = 0
  26              		@ link register save eliminated.
  27 0000 80B4     		push	{r7}
  28 0002 85B0     		sub	sp, sp, #20
  29 0004 00AF     		add	r7, sp, #0
  30 0006 7860     		str	r0, [r7, #4]
  31 0008 7B68     		ldr	r3, [r7, #4]
  32 000a 03F00703 		and	r3, r3, #7
  33 000e FB60     		str	r3, [r7, #12]
  34 0010 0C4B     		ldr	r3, .L2
  35 0012 DB68     		ldr	r3, [r3, #12]
  36 0014 BB60     		str	r3, [r7, #8]
  37 0016 BA68     		ldr	r2, [r7, #8]
  38 0018 4FF6FF03 		movw	r3, #63743
  39 001c 1340     		ands	r3, r3, r2
  40 001e BB60     		str	r3, [r7, #8]
  41 0020 FB68     		ldr	r3, [r7, #12]
  42 0022 1A02     		lsls	r2, r3, #8
  43 0024 BB68     		ldr	r3, [r7, #8]
  44 0026 1343     		orrs	r3, r3, r2
  45 0028 43F0BF63 		orr	r3, r3, #100139008
  46 002c 43F40033 		orr	r3, r3, #131072
  47 0030 BB60     		str	r3, [r7, #8]
  48 0032 044A     		ldr	r2, .L2
  49 0034 BB68     		ldr	r3, [r7, #8]
  50 0036 D360     		str	r3, [r2, #12]
  51 0038 00BF     		nop
  52 003a 1437     		adds	r7, r7, #20
  53 003c BD46     		mov	sp, r7
  54              		@ sp needed
  55 003e 5DF8047B 		ldr	r7, [sp], #4
  56 0042 7047     		bx	lr
  57              	.L3:
  58              		.align	2
ARM GAS  C:\Users\phamt\AppData\Local\Temp\ccddHHHp.s 			page 2


  59              	.L2:
  60 0044 00ED00E0 		.word	-536810240
  62              		.section	.text.main,"ax",%progbits
  63              		.align	1
  64              		.global	main
  65              		.syntax unified
  66              		.thumb
  67              		.thumb_func
  69              	main:
  70              		@ args = 0, pretend = 0, frame = 0
  71              		@ frame_needed = 1, uses_anonymous_args = 0
  72 0000 80B5     		push	{r7, lr}
  73 0002 00AF     		add	r7, sp, #0
  74 0004 FFF7FEFF 		bl	SystemClock_Config
  75 0008 FFF7FEFF 		bl	MX_GPIO_Init
  76              	.L5:
  77 000c 104B     		ldr	r3, .L6
  78 000e 5B69     		ldr	r3, [r3, #20]
  79 0010 0F4A     		ldr	r2, .L6
  80 0012 23F0C003 		bic	r3, r3, #192
  81 0016 5361     		str	r3, [r2, #20]
  82 0018 0D4B     		ldr	r3, .L6
  83 001a 5B69     		ldr	r3, [r3, #20]
  84 001c 0C4A     		ldr	r2, .L6
  85 001e 43F08003 		orr	r3, r3, #128
  86 0022 5361     		str	r3, [r2, #20]
  87 0024 4FF49670 		mov	r0, #300
  88 0028 FFF7FEFF 		bl	s_delay
  89 002c 084B     		ldr	r3, .L6
  90 002e 5B69     		ldr	r3, [r3, #20]
  91 0030 074A     		ldr	r2, .L6
  92 0032 23F0C003 		bic	r3, r3, #192
  93 0036 5361     		str	r3, [r2, #20]
  94 0038 054B     		ldr	r3, .L6
  95 003a 5B69     		ldr	r3, [r3, #20]
  96 003c 044A     		ldr	r2, .L6
  97 003e 43F04003 		orr	r3, r3, #64
  98 0042 5361     		str	r3, [r2, #20]
  99 0044 4FF49670 		mov	r0, #300
 100 0048 FFF7FEFF 		bl	s_delay
 101 004c DEE7     		b	.L5
 102              	.L7:
 103 004e 00BF     		.align	2
 104              	.L6:
 105 0050 00000240 		.word	1073872896
 107              		.section	.text.SystemClock_Config,"ax",%progbits
 108              		.align	1
 109              		.global	SystemClock_Config
 110              		.syntax unified
 111              		.thumb
 112              		.thumb_func
 114              	SystemClock_Config:
 115              		@ args = 0, pretend = 0, frame = 0
 116              		@ frame_needed = 1, uses_anonymous_args = 0
 117 0000 80B5     		push	{r7, lr}
 118 0002 00AF     		add	r7, sp, #0
 119 0004 404B     		ldr	r3, .L12
ARM GAS  C:\Users\phamt\AppData\Local\Temp\ccddHHHp.s 			page 3


 120 0006 1B68     		ldr	r3, [r3]
 121 0008 3F4A     		ldr	r2, .L12
 122 000a 43F40073 		orr	r3, r3, #512
 123 000e 1360     		str	r3, [r2]
 124 0010 3D4B     		ldr	r3, .L12
 125 0012 1B68     		ldr	r3, [r3]
 126 0014 3C4A     		ldr	r2, .L12
 127 0016 43F48063 		orr	r3, r3, #1024
 128 001a 1360     		str	r3, [r2]
 129 001c 3A4B     		ldr	r3, .L12
 130 001e 1B68     		ldr	r3, [r3]
 131 0020 394A     		ldr	r2, .L12
 132 0022 43F48073 		orr	r3, r3, #256
 133 0026 1360     		str	r3, [r2]
 134 0028 0320     		movs	r0, #3
 135 002a FFF7FEFF 		bl	__NVIC_SetPriorityGrouping
 136 002e 374B     		ldr	r3, .L12+4
 137 0030 5B6C     		ldr	r3, [r3, #68]
 138 0032 364A     		ldr	r2, .L12+4
 139 0034 43F48043 		orr	r3, r3, #16384
 140 0038 5364     		str	r3, [r2, #68]
 141 003a 344B     		ldr	r3, .L12+4
 142 003c 1B6C     		ldr	r3, [r3, #64]
 143 003e 334A     		ldr	r2, .L12+4
 144 0040 43F08053 		orr	r3, r3, #268435456
 145 0044 1364     		str	r3, [r2, #64]
 146 0046 324B     		ldr	r3, .L12+8
 147 0048 1B68     		ldr	r3, [r3]
 148 004a 314A     		ldr	r2, .L12+8
 149 004c 43F48043 		orr	r3, r3, #16384
 150 0050 1360     		str	r3, [r2]
 151 0052 2E4B     		ldr	r3, .L12+4
 152 0054 1B68     		ldr	r3, [r3]
 153 0056 2D4A     		ldr	r2, .L12+4
 154 0058 43F48033 		orr	r3, r3, #65536
 155 005c 1360     		str	r3, [r2]
 156 005e 00BF     		nop
 157              	.L9:
 158 0060 2A4B     		ldr	r3, .L12+4
 159 0062 1B68     		ldr	r3, [r3]
 160 0064 03F40033 		and	r3, r3, #131072
 161 0068 002B     		cmp	r3, #0
 162 006a F9D0     		beq	.L9
 163 006c 274B     		ldr	r3, .L12+4
 164 006e 1B68     		ldr	r3, [r3]
 165 0070 264A     		ldr	r2, .L12+4
 166 0072 23F08073 		bic	r3, r3, #16777216
 167 0076 1360     		str	r3, [r2]
 168 0078 00BF     		nop
 169              	.L10:
 170 007a 244B     		ldr	r3, .L12+4
 171 007c 1B68     		ldr	r3, [r3]
 172 007e 03F00073 		and	r3, r3, #33554432
 173 0082 002B     		cmp	r3, #0
 174 0084 F9D1     		bne	.L10
 175 0086 214B     		ldr	r3, .L12+4
 176 0088 224A     		ldr	r2, .L12+12
ARM GAS  C:\Users\phamt\AppData\Local\Temp\ccddHHHp.s 			page 4


 177 008a 5A60     		str	r2, [r3, #4]
 178 008c 1F4B     		ldr	r3, .L12+4
 179 008e 1B68     		ldr	r3, [r3]
 180 0090 1E4A     		ldr	r2, .L12+4
 181 0092 43F08073 		orr	r3, r3, #16777216
 182 0096 1360     		str	r3, [r2]
 183 0098 00BF     		nop
 184              	.L11:
 185 009a 1C4B     		ldr	r3, .L12+4
 186 009c 1B68     		ldr	r3, [r3]
 187 009e 03F00073 		and	r3, r3, #33554432
 188 00a2 002B     		cmp	r3, #0
 189 00a4 F9D0     		beq	.L11
 190 00a6 184B     		ldr	r3, .L12
 191 00a8 1B68     		ldr	r3, [r3]
 192 00aa 23F00703 		bic	r3, r3, #7
 193 00ae 164A     		ldr	r2, .L12
 194 00b0 43F00503 		orr	r3, r3, #5
 195 00b4 1360     		str	r3, [r2]
 196 00b6 154B     		ldr	r3, .L12+4
 197 00b8 9B68     		ldr	r3, [r3, #8]
 198 00ba 23F46043 		bic	r3, r3, #57344
 199 00be 23F00403 		bic	r3, r3, #4
 200 00c2 124A     		ldr	r2, .L12+4
 201 00c4 43F00403 		orr	r3, r3, #4
 202 00c8 9360     		str	r3, [r2, #8]
 203 00ca 104B     		ldr	r3, .L12+4
 204 00cc 9B68     		ldr	r3, [r3, #8]
 205 00ce 23F4E053 		bic	r3, r3, #7168
 206 00d2 23F00503 		bic	r3, r3, #5
 207 00d6 0D4A     		ldr	r2, .L12+4
 208 00d8 43F00503 		orr	r3, r3, #5
 209 00dc 9360     		str	r3, [r2, #8]
 210 00de 0B4B     		ldr	r3, .L12+4
 211 00e0 9B68     		ldr	r3, [r3, #8]
 212 00e2 0A4A     		ldr	r2, .L12+4
 213 00e4 23F47F63 		bic	r3, r3, #4080
 214 00e8 9360     		str	r3, [r2, #8]
 215 00ea 084B     		ldr	r3, .L12+4
 216 00ec 9B68     		ldr	r3, [r3, #8]
 217 00ee 23F00303 		bic	r3, r3, #3
 218 00f2 064A     		ldr	r2, .L12+4
 219 00f4 43F00203 		orr	r3, r3, #2
 220 00f8 9360     		str	r3, [r2, #8]
 221 00fa 074B     		ldr	r3, .L12+16
 222 00fc 074A     		ldr	r2, .L12+20
 223 00fe 1A60     		str	r2, [r3]
 224 0100 FFF7FEFF 		bl	Init_Tick
 225 0104 00BF     		nop
 226 0106 80BD     		pop	{r7, pc}
 227              	.L13:
 228              		.align	2
 229              	.L12:
 230 0108 003C0240 		.word	1073888256
 231 010c 00380240 		.word	1073887232
 232 0110 00700040 		.word	1073770496
 233 0114 042A4004 		.word	71313924
ARM GAS  C:\Users\phamt\AppData\Local\Temp\ccddHHHp.s 			page 5


 234 0118 00000000 		.word	SystemCoreClock
 235 011c 007A030A 		.word	168000000
 237              		.section	.text.Error_Handler,"ax",%progbits
 238              		.align	1
 239              		.global	Error_Handler
 240              		.syntax unified
 241              		.thumb
 242              		.thumb_func
 244              	Error_Handler:
 245              		@ args = 0, pretend = 0, frame = 0
 246              		@ frame_needed = 1, uses_anonymous_args = 0
 247              		@ link register save eliminated.
 248 0000 80B4     		push	{r7}
 249 0002 00AF     		add	r7, sp, #0
 250              		.syntax unified
 251              	@ 962 "Drivers/CMSIS/Include/cmsis_gcc.h" 1
 252 0004 72B6     		cpsid i
 253              	@ 0 "" 2
 254              		.thumb
 255              		.syntax unified
 256 0006 00BF     		nop
 257              	.L15:
 258 0008 FEE7     		b	.L15
 260              		.ident	"GCC: (GNU Arm Embedded Toolchain 10.3-2021.10) 10.3.1 20210824 (release)"
ARM GAS  C:\Users\phamt\AppData\Local\Temp\ccddHHHp.s 			page 6


DEFINED SYMBOLS
                            *ABS*:00000000 main.c
C:\Users\phamt\AppData\Local\Temp\ccddHHHp.s:18     .text.__NVIC_SetPriorityGrouping:00000000 $t
C:\Users\phamt\AppData\Local\Temp\ccddHHHp.s:23     .text.__NVIC_SetPriorityGrouping:00000000 __NVIC_SetPriorityGrouping
C:\Users\phamt\AppData\Local\Temp\ccddHHHp.s:60     .text.__NVIC_SetPriorityGrouping:00000044 $d
C:\Users\phamt\AppData\Local\Temp\ccddHHHp.s:63     .text.main:00000000 $t
C:\Users\phamt\AppData\Local\Temp\ccddHHHp.s:69     .text.main:00000000 main
C:\Users\phamt\AppData\Local\Temp\ccddHHHp.s:114    .text.SystemClock_Config:00000000 SystemClock_Config
C:\Users\phamt\AppData\Local\Temp\ccddHHHp.s:105    .text.main:00000050 $d
C:\Users\phamt\AppData\Local\Temp\ccddHHHp.s:108    .text.SystemClock_Config:00000000 $t
C:\Users\phamt\AppData\Local\Temp\ccddHHHp.s:230    .text.SystemClock_Config:00000108 $d
C:\Users\phamt\AppData\Local\Temp\ccddHHHp.s:238    .text.Error_Handler:00000000 $t
C:\Users\phamt\AppData\Local\Temp\ccddHHHp.s:244    .text.Error_Handler:00000000 Error_Handler

UNDEFINED SYMBOLS
MX_GPIO_Init
s_delay
Init_Tick
SystemCoreClock
