ARM GAS  C:\Users\phamt\AppData\Local\Temp\ccDij2IR.s 			page 1


   1              		.cpu cortex-m4
   2              		.arch armv7e-m
   3              		.fpu fpv4-sp-d16
   4              		.eabi_attribute 27, 1
   5              		.eabi_attribute 28, 1
   6              		.eabi_attribute 20, 1
   7              		.eabi_attribute 21, 1
   8              		.eabi_attribute 23, 3
   9              		.eabi_attribute 24, 1
  10              		.eabi_attribute 25, 1
  11              		.eabi_attribute 26, 1
  12              		.eabi_attribute 30, 6
  13              		.eabi_attribute 34, 1
  14              		.eabi_attribute 18, 4
  15              		.file	"main.c"
  16              		.text
  17              		.section	.rodata
  18              		.align	2
  19              	.LC0:
  20 0000 D007     		.short	2000
  21 0002 F401     		.short	500
  22              		.section	.text.vTaskLED,"ax",%progbits
  23              		.align	1
  24              		.global	vTaskLED
  25              		.syntax unified
  26              		.thumb
  27              		.thumb_func
  29              	vTaskLED:
  30              		@ args = 0, pretend = 0, frame = 16
  31              		@ frame_needed = 1, uses_anonymous_args = 0
  32 0000 80B5     		push	{r7, lr}
  33 0002 84B0     		sub	sp, sp, #16
  34 0004 00AF     		add	r7, sp, #0
  35 0006 7860     		str	r0, [r7, #4]
  36 0008 7B68     		ldr	r3, [r7, #4]
  37 000a FB60     		str	r3, [r7, #12]
  38 000c 0A4B     		ldr	r3, .L3
  39 000e 1B68     		ldr	r3, [r3]
  40 0010 BB60     		str	r3, [r7, #8]
  41              	.L2:
  42 0012 FB68     		ldr	r3, [r7, #12]
  43 0014 9BB2     		uxth	r3, r3
  44 0016 0633     		adds	r3, r3, #6
  45 0018 9BB2     		uxth	r3, r3
  46 001a 1946     		mov	r1, r3
  47 001c 0748     		ldr	r0, .L3+4
  48 001e FFF7FEFF 		bl	gpio_tog
  49 0022 FB68     		ldr	r3, [r7, #12]
  50 0024 5B00     		lsls	r3, r3, #1
  51 0026 1033     		adds	r3, r3, #16
  52 0028 3B44     		add	r3, r3, r7
  53 002a 33F8083C 		ldrh	r3, [r3, #-8]
  54 002e 1846     		mov	r0, r3
  55 0030 FFF7FEFF 		bl	vTaskDelay
  56 0034 EDE7     		b	.L2
  57              	.L4:
  58 0036 00BF     		.align	2
ARM GAS  C:\Users\phamt\AppData\Local\Temp\ccDij2IR.s 			page 2


  59              	.L3:
  60 0038 00000000 		.word	.LC0
  61 003c 00000240 		.word	1073872896
  63              		.section	.text.vTask1,"ax",%progbits
  64              		.align	1
  65              		.global	vTask1
  66              		.syntax unified
  67              		.thumb
  68              		.thumb_func
  70              	vTask1:
  71              		@ args = 0, pretend = 0, frame = 16
  72              		@ frame_needed = 1, uses_anonymous_args = 0
  73 0000 80B5     		push	{r7, lr}
  74 0002 84B0     		sub	sp, sp, #16
  75 0004 00AF     		add	r7, sp, #0
  76 0006 7860     		str	r0, [r7, #4]
  77              	.L7:
  78 0008 1820     		movs	r0, #24
  79 000a FFF7FEFF 		bl	pvPortMalloc
  80 000e F860     		str	r0, [r7, #12]
  81 0010 1822     		movs	r2, #24
  82 0012 0021     		movs	r1, #0
  83 0014 F868     		ldr	r0, [r7, #12]
  84 0016 FFF7FEFF 		bl	memset
  85 001a FB68     		ldr	r3, [r7, #12]
  86 001c 002B     		cmp	r3, #0
  87 001e 0ED0     		beq	.L6
  88 0020 F868     		ldr	r0, [r7, #12]
  89 0022 FFF7FEFF 		bl	GetFromBuff_DMA
  90 0026 0A20     		movs	r0, #10
  91 0028 FFF7FEFF 		bl	Usart_Send_Char
  92 002c F868     		ldr	r0, [r7, #12]
  93 002e FFF7FEFF 		bl	Usart_Send_String
  94 0032 0A20     		movs	r0, #10
  95 0034 FFF7FEFF 		bl	Usart_Send_Char
  96 0038 F868     		ldr	r0, [r7, #12]
  97 003a FFF7FEFF 		bl	vPortFree
  98              	.L6:
  99 003e 6420     		movs	r0, #100
 100 0040 FFF7FEFF 		bl	vTaskDelay
 101 0044 E0E7     		b	.L7
 103              		.section	.text.vTaskFlash_W25,"ax",%progbits
 104              		.align	1
 105              		.global	vTaskFlash_W25
 106              		.syntax unified
 107              		.thumb
 108              		.thumb_func
 110              	vTaskFlash_W25:
 111              		@ args = 0, pretend = 0, frame = 16
 112              		@ frame_needed = 1, uses_anonymous_args = 0
 113 0000 80B5     		push	{r7, lr}
 114 0002 84B0     		sub	sp, sp, #16
 115 0004 00AF     		add	r7, sp, #0
 116 0006 7860     		str	r0, [r7, #4]
 117              	.L10:
 118 0008 2820     		movs	r0, #40
 119 000a FFF7FEFF 		bl	pvPortMalloc
ARM GAS  C:\Users\phamt\AppData\Local\Temp\ccDij2IR.s 			page 3


 120 000e F860     		str	r0, [r7, #12]
 121 0010 FB68     		ldr	r3, [r7, #12]
 122 0012 002B     		cmp	r3, #0
 123 0014 0FD0     		beq	.L9
 124 0016 F868     		ldr	r0, [r7, #12]
 125 0018 FFF7FEFF 		bl	W25Q_ReadID
 126 001c F868     		ldr	r0, [r7, #12]
 127 001e FFF7FEFF 		bl	strlen
 128 0022 0346     		mov	r3, r0
 129 0024 4FF47A72 		mov	r2, #1000
 130 0028 1946     		mov	r1, r3
 131 002a F868     		ldr	r0, [r7, #12]
 132 002c FFF7FEFF 		bl	Usart_Transmit
 133 0030 F868     		ldr	r0, [r7, #12]
 134 0032 FFF7FEFF 		bl	vPortFree
 135              	.L9:
 136 0036 4FF4FA60 		mov	r0, #2000
 137 003a FFF7FEFF 		bl	vTaskDelay
 138 003e E3E7     		b	.L10
 140              		.section	.rodata
 141              		.align	2
 142              	.LC1:
 143 0004 4C65645F 		.ascii	"Led_blink\000"
 143      626C696E 
 143      6B00
 144 000e 0000     		.align	2
 145              	.LC2:
 146 0010 4C65645F 		.ascii	"Led_blink1\000"
 146      626C696E 
 146      6B3100
 147 001b 00       		.align	2
 148              	.LC3:
 149 001c 5461736B 		.ascii	"Task_flash_w25\000"
 149      5F666C61 
 149      73685F77 
 149      323500
 150              		.section	.text.main,"ax",%progbits
 151              		.align	1
 152              		.global	main
 153              		.syntax unified
 154              		.thumb
 155              		.thumb_func
 157              	main:
 158              		@ args = 0, pretend = 0, frame = 0
 159              		@ frame_needed = 1, uses_anonymous_args = 0
 160 0000 80B5     		push	{r7, lr}
 161 0002 82B0     		sub	sp, sp, #8
 162 0004 02AF     		add	r7, sp, #8
 163 0006 FFF7FEFF 		bl	SystemClock_Config
 164 000a FFF7FEFF 		bl	MX_GPIO_Init
 165 000e FFF7FEFF 		bl	USART1_Init
 166 0012 FFF7FEFF 		bl	SPI_Init
 167 0016 FFF7FEFF 		bl	W25Q_Reset
 168 001a 0023     		movs	r3, #0
 169 001c 0193     		str	r3, [sp, #4]
 170 001e 0023     		movs	r3, #0
 171 0020 0093     		str	r3, [sp]
ARM GAS  C:\Users\phamt\AppData\Local\Temp\ccDij2IR.s 			page 4


 172 0022 0023     		movs	r3, #0
 173 0024 4022     		movs	r2, #64
 174 0026 0E49     		ldr	r1, .L13
 175 0028 0E48     		ldr	r0, .L13+4
 176 002a FFF7FEFF 		bl	xTaskCreate
 177 002e 0023     		movs	r3, #0
 178 0030 0193     		str	r3, [sp, #4]
 179 0032 0123     		movs	r3, #1
 180 0034 0093     		str	r3, [sp]
 181 0036 0123     		movs	r3, #1
 182 0038 4022     		movs	r2, #64
 183 003a 0B49     		ldr	r1, .L13+8
 184 003c 0948     		ldr	r0, .L13+4
 185 003e FFF7FEFF 		bl	xTaskCreate
 186 0042 0023     		movs	r3, #0
 187 0044 0193     		str	r3, [sp, #4]
 188 0046 0223     		movs	r3, #2
 189 0048 0093     		str	r3, [sp]
 190 004a 0023     		movs	r3, #0
 191 004c 4FF40062 		mov	r2, #2048
 192 0050 0649     		ldr	r1, .L13+12
 193 0052 0748     		ldr	r0, .L13+16
 194 0054 FFF7FEFF 		bl	xTaskCreate
 195 0058 FFF7FEFF 		bl	vTaskStartScheduler
 196              	.L12:
 197 005c FEE7     		b	.L12
 198              	.L14:
 199 005e 00BF     		.align	2
 200              	.L13:
 201 0060 04000000 		.word	.LC1
 202 0064 00000000 		.word	vTaskLED
 203 0068 10000000 		.word	.LC2
 204 006c 1C000000 		.word	.LC3
 205 0070 00000000 		.word	vTaskFlash_W25
 207              		.section	.text.Error_Handler,"ax",%progbits
 208              		.align	1
 209              		.global	Error_Handler
 210              		.syntax unified
 211              		.thumb
 212              		.thumb_func
 214              	Error_Handler:
 215              		@ args = 0, pretend = 0, frame = 0
 216              		@ frame_needed = 1, uses_anonymous_args = 0
 217              		@ link register save eliminated.
 218 0000 80B4     		push	{r7}
 219 0002 00AF     		add	r7, sp, #0
 220              		.syntax unified
 221              	@ 962 "Drivers/CMSIS/Include/cmsis_gcc.h" 1
 222 0004 72B6     		cpsid i
 223              	@ 0 "" 2
 224              		.thumb
 225              		.syntax unified
 226 0006 00BF     		nop
 227              	.L16:
 228 0008 FEE7     		b	.L16
 230              		.ident	"GCC: (GNU Arm Embedded Toolchain 10.3-2021.10) 10.3.1 20210824 (release)"
ARM GAS  C:\Users\phamt\AppData\Local\Temp\ccDij2IR.s 			page 5

