ARM GAS  C:\Users\phamt\AppData\Local\Temp\ccmMlYEc.s 			page 1


   1              		.cpu cortex-m4
   2              		.arch armv7e-m
   3              		.fpu fpv4-sp-d16
   4              		.eabi_attribute 27, 1
   5              		.eabi_attribute 28, 1
   6              		.eabi_attribute 20, 1
   7              		.eabi_attribute 21, 1
   8              		.eabi_attribute 23, 3
   9              		.eabi_attribute 24, 1
  10              		.eabi_attribute 25, 1
  11              		.eabi_attribute 26, 1
  12              		.eabi_attribute 30, 6
  13              		.eabi_attribute 34, 1
  14              		.eabi_attribute 18, 4
  15              		.file	"main.c"
  16              		.text
  17              		.section	.rodata
  18              		.align	2
  19              	.LC0:
  20 0000 D007     		.short	2000
  21 0002 F401     		.short	500
  22              		.section	.text.vTaskLED,"ax",%progbits
  23              		.align	1
  24              		.global	vTaskLED
  25              		.syntax unified
  26              		.thumb
  27              		.thumb_func
  29              	vTaskLED:
  30              		@ args = 0, pretend = 0, frame = 16
  31              		@ frame_needed = 1, uses_anonymous_args = 0
  32 0000 80B5     		push	{r7, lr}
  33 0002 84B0     		sub	sp, sp, #16
  34 0004 00AF     		add	r7, sp, #0
  35 0006 7860     		str	r0, [r7, #4]
  36 0008 7B68     		ldr	r3, [r7, #4]
  37 000a FB60     		str	r3, [r7, #12]
  38 000c 0A4B     		ldr	r3, .L3
  39 000e 1B68     		ldr	r3, [r3]
  40 0010 BB60     		str	r3, [r7, #8]
  41              	.L2:
  42 0012 FB68     		ldr	r3, [r7, #12]
  43 0014 9BB2     		uxth	r3, r3
  44 0016 0633     		adds	r3, r3, #6
  45 0018 9BB2     		uxth	r3, r3
  46 001a 1946     		mov	r1, r3
  47 001c 0748     		ldr	r0, .L3+4
  48 001e FFF7FEFF 		bl	gpio_tog
  49 0022 FB68     		ldr	r3, [r7, #12]
  50 0024 5B00     		lsls	r3, r3, #1
  51 0026 1033     		adds	r3, r3, #16
  52 0028 3B44     		add	r3, r3, r7
  53 002a 33F8083C 		ldrh	r3, [r3, #-8]
  54 002e 1846     		mov	r0, r3
  55 0030 FFF7FEFF 		bl	vTaskDelay
  56 0034 EDE7     		b	.L2
  57              	.L4:
  58 0036 00BF     		.align	2
ARM GAS  C:\Users\phamt\AppData\Local\Temp\ccmMlYEc.s 			page 2


  59              	.L3:
  60 0038 00000000 		.word	.LC0
  61 003c 00000240 		.word	1073872896
  63              		.section	.text.vTask1,"ax",%progbits
  64              		.align	1
  65              		.global	vTask1
  66              		.syntax unified
  67              		.thumb
  68              		.thumb_func
  70              	vTask1:
  71              		@ args = 0, pretend = 0, frame = 16
  72              		@ frame_needed = 1, uses_anonymous_args = 0
  73 0000 80B5     		push	{r7, lr}
  74 0002 84B0     		sub	sp, sp, #16
  75 0004 00AF     		add	r7, sp, #0
  76 0006 7860     		str	r0, [r7, #4]
  77              	.L7:
  78 0008 1820     		movs	r0, #24
  79 000a FFF7FEFF 		bl	pvPortMalloc
  80 000e F860     		str	r0, [r7, #12]
  81 0010 1822     		movs	r2, #24
  82 0012 0021     		movs	r1, #0
  83 0014 F868     		ldr	r0, [r7, #12]
  84 0016 FFF7FEFF 		bl	memset
  85 001a FB68     		ldr	r3, [r7, #12]
  86 001c 002B     		cmp	r3, #0
  87 001e 0ED0     		beq	.L6
  88 0020 F868     		ldr	r0, [r7, #12]
  89 0022 FFF7FEFF 		bl	GetFromBuff_DMA
  90 0026 0A20     		movs	r0, #10
  91 0028 FFF7FEFF 		bl	Usart_Send_Char
  92 002c F868     		ldr	r0, [r7, #12]
  93 002e FFF7FEFF 		bl	Usart_Send_String
  94 0032 0A20     		movs	r0, #10
  95 0034 FFF7FEFF 		bl	Usart_Send_Char
  96 0038 F868     		ldr	r0, [r7, #12]
  97 003a FFF7FEFF 		bl	vPortFree
  98              	.L6:
  99 003e 6420     		movs	r0, #100
 100 0040 FFF7FEFF 		bl	vTaskDelay
 101 0044 E0E7     		b	.L7
 103              		.section	.rodata
 104              		.align	2
 105              	.LC2:
 106 0004 25303258 		.ascii	"%02X %02X %02X %02X %02X %02X\012\000"
 106      20253032 
 106      58202530 
 106      32582025 
 106      30325820 
 107 0023 00       		.align	2
 108              	.LC3:
 109 0024 44612067 		.ascii	"Da ghi thanh cong\012\000"
 109      68692074 
 109      68616E68 
 109      20636F6E 
 109      670A00
 110 0037 00       		.align	2
ARM GAS  C:\Users\phamt\AppData\Local\Temp\ccmMlYEc.s 			page 3


 111              	.LC1:
 112 0038 AABBCC   		.ascii	"\252\273\314"
 113              		.section	.text.vTaskFlash_W25,"ax",%progbits
 114              		.align	1
 115              		.global	vTaskFlash_W25
 116              		.syntax unified
 117              		.thumb
 118              		.thumb_func
 120              	vTaskFlash_W25:
 121              		@ args = 0, pretend = 0, frame = 24
 122              		@ frame_needed = 1, uses_anonymous_args = 0
 123 0000 B0B5     		push	{r4, r5, r7, lr}
 124 0002 8AB0     		sub	sp, sp, #40
 125 0004 04AF     		add	r7, sp, #16
 126 0006 7860     		str	r0, [r7, #4]
 127 0008 854A     		ldr	r2, .L11
 128 000a 07F10C03 		add	r3, r7, #12
 129 000e 1268     		ldr	r2, [r2]
 130 0010 1146     		mov	r1, r2	@ movhi
 131 0012 1980     		strh	r1, [r3]	@ movhi
 132 0014 0233     		adds	r3, r3, #2
 133 0016 120C     		lsrs	r2, r2, #16
 134 0018 1A70     		strb	r2, [r3]
 135              	.L10:
 136 001a 2820     		movs	r0, #40
 137 001c FFF7FEFF 		bl	pvPortMalloc
 138 0020 7861     		str	r0, [r7, #20]
 139 0022 0A20     		movs	r0, #10
 140 0024 FFF7FEFF 		bl	pvPortMalloc
 141 0028 3861     		str	r0, [r7, #16]
 142 002a 7B69     		ldr	r3, [r7, #20]
 143 002c 002B     		cmp	r3, #0
 144 002e 00F0F280 		beq	.L9
 145 0032 3B69     		ldr	r3, [r7, #16]
 146 0034 002B     		cmp	r3, #0
 147 0036 00F0EE80 		beq	.L9
 148 003a 7869     		ldr	r0, [r7, #20]
 149 003c FFF7FEFF 		bl	W25Q_ReadID
 150 0040 7869     		ldr	r0, [r7, #20]
 151 0042 FFF7FEFF 		bl	strlen
 152 0046 0346     		mov	r3, r0
 153 0048 6422     		movs	r2, #100
 154 004a 1946     		mov	r1, r3
 155 004c 7869     		ldr	r0, [r7, #20]
 156 004e FFF7FEFF 		bl	Usart_Transmit
 157 0052 4FF47A73 		mov	r3, #1000
 158 0056 0622     		movs	r2, #6
 159 0058 3969     		ldr	r1, [r7, #16]
 160 005a 4FF4FE70 		mov	r0, #508
 161 005e FFF7FEFF 		bl	W25Q_Read_Byte
 162 0062 3B69     		ldr	r3, [r7, #16]
 163 0064 1B78     		ldrb	r3, [r3]	@ zero_extendqisi2
 164 0066 1C46     		mov	r4, r3
 165 0068 3B69     		ldr	r3, [r7, #16]
 166 006a 0133     		adds	r3, r3, #1
 167 006c 1B78     		ldrb	r3, [r3]	@ zero_extendqisi2
 168 006e 1D46     		mov	r5, r3
ARM GAS  C:\Users\phamt\AppData\Local\Temp\ccmMlYEc.s 			page 4


 169 0070 3B69     		ldr	r3, [r7, #16]
 170 0072 0233     		adds	r3, r3, #2
 171 0074 1B78     		ldrb	r3, [r3]	@ zero_extendqisi2
 172 0076 1A46     		mov	r2, r3
 173 0078 3B69     		ldr	r3, [r7, #16]
 174 007a 0333     		adds	r3, r3, #3
 175 007c 1B78     		ldrb	r3, [r3]	@ zero_extendqisi2
 176 007e 1946     		mov	r1, r3
 177 0080 3B69     		ldr	r3, [r7, #16]
 178 0082 0433     		adds	r3, r3, #4
 179 0084 1B78     		ldrb	r3, [r3]	@ zero_extendqisi2
 180 0086 1846     		mov	r0, r3
 181 0088 3B69     		ldr	r3, [r7, #16]
 182 008a 0533     		adds	r3, r3, #5
 183 008c 1B78     		ldrb	r3, [r3]	@ zero_extendqisi2
 184 008e 0393     		str	r3, [sp, #12]
 185 0090 0290     		str	r0, [sp, #8]
 186 0092 0191     		str	r1, [sp, #4]
 187 0094 0092     		str	r2, [sp]
 188 0096 2B46     		mov	r3, r5
 189 0098 2246     		mov	r2, r4
 190 009a 6249     		ldr	r1, .L11+4
 191 009c 7869     		ldr	r0, [r7, #20]
 192 009e FFF7FEFF 		bl	sprintf
 193 00a2 7869     		ldr	r0, [r7, #20]
 194 00a4 FFF7FEFF 		bl	strlen
 195 00a8 0346     		mov	r3, r0
 196 00aa 6422     		movs	r2, #100
 197 00ac 1946     		mov	r1, r3
 198 00ae 7869     		ldr	r0, [r7, #20]
 199 00b0 FFF7FEFF 		bl	Usart_Transmit
 200 00b4 0020     		movs	r0, #0
 201 00b6 FFF7FEFF 		bl	W25Q_Erase_Sector
 202 00ba 4FF47A73 		mov	r3, #1000
 203 00be 0622     		movs	r2, #6
 204 00c0 3969     		ldr	r1, [r7, #16]
 205 00c2 4FF4FE70 		mov	r0, #508
 206 00c6 FFF7FEFF 		bl	W25Q_Read_Byte
 207 00ca 3B69     		ldr	r3, [r7, #16]
 208 00cc 1B78     		ldrb	r3, [r3]	@ zero_extendqisi2
 209 00ce 1C46     		mov	r4, r3
 210 00d0 3B69     		ldr	r3, [r7, #16]
 211 00d2 0133     		adds	r3, r3, #1
 212 00d4 1B78     		ldrb	r3, [r3]	@ zero_extendqisi2
 213 00d6 1D46     		mov	r5, r3
 214 00d8 3B69     		ldr	r3, [r7, #16]
 215 00da 0233     		adds	r3, r3, #2
 216 00dc 1B78     		ldrb	r3, [r3]	@ zero_extendqisi2
 217 00de 1A46     		mov	r2, r3
 218 00e0 3B69     		ldr	r3, [r7, #16]
 219 00e2 0333     		adds	r3, r3, #3
 220 00e4 1B78     		ldrb	r3, [r3]	@ zero_extendqisi2
 221 00e6 1946     		mov	r1, r3
 222 00e8 3B69     		ldr	r3, [r7, #16]
 223 00ea 0433     		adds	r3, r3, #4
 224 00ec 1B78     		ldrb	r3, [r3]	@ zero_extendqisi2
 225 00ee 1846     		mov	r0, r3
ARM GAS  C:\Users\phamt\AppData\Local\Temp\ccmMlYEc.s 			page 5


 226 00f0 3B69     		ldr	r3, [r7, #16]
 227 00f2 0533     		adds	r3, r3, #5
 228 00f4 1B78     		ldrb	r3, [r3]	@ zero_extendqisi2
 229 00f6 0393     		str	r3, [sp, #12]
 230 00f8 0290     		str	r0, [sp, #8]
 231 00fa 0191     		str	r1, [sp, #4]
 232 00fc 0092     		str	r2, [sp]
 233 00fe 2B46     		mov	r3, r5
 234 0100 2246     		mov	r2, r4
 235 0102 4849     		ldr	r1, .L11+4
 236 0104 7869     		ldr	r0, [r7, #20]
 237 0106 FFF7FEFF 		bl	sprintf
 238 010a 7869     		ldr	r0, [r7, #20]
 239 010c FFF7FEFF 		bl	strlen
 240 0110 0346     		mov	r3, r0
 241 0112 6422     		movs	r2, #100
 242 0114 1946     		mov	r1, r3
 243 0116 7869     		ldr	r0, [r7, #20]
 244 0118 FFF7FEFF 		bl	Usart_Transmit
 245 011c 07F10C03 		add	r3, r7, #12
 246 0120 0322     		movs	r2, #3
 247 0122 1946     		mov	r1, r3
 248 0124 40F2FD10 		movw	r0, #509
 249 0128 FFF7FEFF 		bl	W25Q_Write_Byte
 250 012c 3E49     		ldr	r1, .L11+8
 251 012e 7869     		ldr	r0, [r7, #20]
 252 0130 FFF7FEFF 		bl	sprintf
 253 0134 7869     		ldr	r0, [r7, #20]
 254 0136 FFF7FEFF 		bl	strlen
 255 013a 0346     		mov	r3, r0
 256 013c 6422     		movs	r2, #100
 257 013e 1946     		mov	r1, r3
 258 0140 7869     		ldr	r0, [r7, #20]
 259 0142 FFF7FEFF 		bl	Usart_Transmit
 260 0146 4FF47A73 		mov	r3, #1000
 261 014a 0622     		movs	r2, #6
 262 014c 3969     		ldr	r1, [r7, #16]
 263 014e 4FF4FE70 		mov	r0, #508
 264 0152 FFF7FEFF 		bl	W25Q_Read_Byte
 265 0156 3B69     		ldr	r3, [r7, #16]
 266 0158 1B78     		ldrb	r3, [r3]	@ zero_extendqisi2
 267 015a 1C46     		mov	r4, r3
 268 015c 3B69     		ldr	r3, [r7, #16]
 269 015e 0133     		adds	r3, r3, #1
 270 0160 1B78     		ldrb	r3, [r3]	@ zero_extendqisi2
 271 0162 1D46     		mov	r5, r3
 272 0164 3B69     		ldr	r3, [r7, #16]
 273 0166 0233     		adds	r3, r3, #2
 274 0168 1B78     		ldrb	r3, [r3]	@ zero_extendqisi2
 275 016a 1A46     		mov	r2, r3
 276 016c 3B69     		ldr	r3, [r7, #16]
 277 016e 0333     		adds	r3, r3, #3
 278 0170 1B78     		ldrb	r3, [r3]	@ zero_extendqisi2
 279 0172 1946     		mov	r1, r3
 280 0174 3B69     		ldr	r3, [r7, #16]
 281 0176 0433     		adds	r3, r3, #4
 282 0178 1B78     		ldrb	r3, [r3]	@ zero_extendqisi2
ARM GAS  C:\Users\phamt\AppData\Local\Temp\ccmMlYEc.s 			page 6


 283 017a 1846     		mov	r0, r3
 284 017c 3B69     		ldr	r3, [r7, #16]
 285 017e 0533     		adds	r3, r3, #5
 286 0180 1B78     		ldrb	r3, [r3]	@ zero_extendqisi2
 287 0182 0393     		str	r3, [sp, #12]
 288 0184 0290     		str	r0, [sp, #8]
 289 0186 0191     		str	r1, [sp, #4]
 290 0188 0092     		str	r2, [sp]
 291 018a 2B46     		mov	r3, r5
 292 018c 2246     		mov	r2, r4
 293 018e 2549     		ldr	r1, .L11+4
 294 0190 7869     		ldr	r0, [r7, #20]
 295 0192 FFF7FEFF 		bl	sprintf
 296 0196 7869     		ldr	r0, [r7, #20]
 297 0198 FFF7FEFF 		bl	strlen
 298 019c 0346     		mov	r3, r0
 299 019e 6422     		movs	r2, #100
 300 01a0 1946     		mov	r1, r3
 301 01a2 7869     		ldr	r0, [r7, #20]
 302 01a4 FFF7FEFF 		bl	Usart_Transmit
 303 01a8 4FF47A73 		mov	r3, #1000
 304 01ac 0622     		movs	r2, #6
 305 01ae 3969     		ldr	r1, [r7, #16]
 306 01b0 4FF4FE70 		mov	r0, #508
 307 01b4 FFF7FEFF 		bl	W25Q_Read_Byte
 308 01b8 3B69     		ldr	r3, [r7, #16]
 309 01ba 1B78     		ldrb	r3, [r3]	@ zero_extendqisi2
 310 01bc 1C46     		mov	r4, r3
 311 01be 3B69     		ldr	r3, [r7, #16]
 312 01c0 0133     		adds	r3, r3, #1
 313 01c2 1B78     		ldrb	r3, [r3]	@ zero_extendqisi2
 314 01c4 1D46     		mov	r5, r3
 315 01c6 3B69     		ldr	r3, [r7, #16]
 316 01c8 0233     		adds	r3, r3, #2
 317 01ca 1B78     		ldrb	r3, [r3]	@ zero_extendqisi2
 318 01cc 1A46     		mov	r2, r3
 319 01ce 3B69     		ldr	r3, [r7, #16]
 320 01d0 0333     		adds	r3, r3, #3
 321 01d2 1B78     		ldrb	r3, [r3]	@ zero_extendqisi2
 322 01d4 1946     		mov	r1, r3
 323 01d6 3B69     		ldr	r3, [r7, #16]
 324 01d8 0433     		adds	r3, r3, #4
 325 01da 1B78     		ldrb	r3, [r3]	@ zero_extendqisi2
 326 01dc 1846     		mov	r0, r3
 327 01de 3B69     		ldr	r3, [r7, #16]
 328 01e0 0533     		adds	r3, r3, #5
 329 01e2 1B78     		ldrb	r3, [r3]	@ zero_extendqisi2
 330 01e4 0393     		str	r3, [sp, #12]
 331 01e6 0290     		str	r0, [sp, #8]
 332 01e8 0191     		str	r1, [sp, #4]
 333 01ea 0092     		str	r2, [sp]
 334 01ec 2B46     		mov	r3, r5
 335 01ee 2246     		mov	r2, r4
 336 01f0 0C49     		ldr	r1, .L11+4
 337 01f2 7869     		ldr	r0, [r7, #20]
 338 01f4 FFF7FEFF 		bl	sprintf
 339 01f8 7869     		ldr	r0, [r7, #20]
ARM GAS  C:\Users\phamt\AppData\Local\Temp\ccmMlYEc.s 			page 7


 340 01fa FFF7FEFF 		bl	strlen
 341 01fe 0346     		mov	r3, r0
 342 0200 6422     		movs	r2, #100
 343 0202 1946     		mov	r1, r3
 344 0204 7869     		ldr	r0, [r7, #20]
 345 0206 FFF7FEFF 		bl	Usart_Transmit
 346 020a 7869     		ldr	r0, [r7, #20]
 347 020c FFF7FEFF 		bl	vPortFree
 348 0210 3869     		ldr	r0, [r7, #16]
 349 0212 FFF7FEFF 		bl	vPortFree
 350              	.L9:
 351 0216 41F28830 		movw	r0, #5000
 352 021a FFF7FEFF 		bl	vTaskDelay
 353 021e FCE6     		b	.L10
 354              	.L12:
 355              		.align	2
 356              	.L11:
 357 0220 38000000 		.word	.LC1
 358 0224 04000000 		.word	.LC2
 359 0228 24000000 		.word	.LC3
 361              		.section	.text.vTaskFlash_W25Q2,"ax",%progbits
 362              		.align	1
 363              		.global	vTaskFlash_W25Q2
 364              		.syntax unified
 365              		.thumb
 366              		.thumb_func
 368              	vTaskFlash_W25Q2:
 369              		@ args = 0, pretend = 0, frame = 24
 370              		@ frame_needed = 1, uses_anonymous_args = 0
 371 0000 80B5     		push	{r7, lr}
 372 0002 86B0     		sub	sp, sp, #24
 373 0004 00AF     		add	r7, sp, #0
 374 0006 7860     		str	r0, [r7, #4]
 375 0008 4BF6AA33 		movw	r3, #48042
 376 000c BB81     		strh	r3, [r7, #12]	@ movhi
 377 000e 0023     		movs	r3, #0
 378 0010 FB75     		strb	r3, [r7, #23]
 379              	.L17:
 380 0012 FB7D     		ldrb	r3, [r7, #23]	@ zero_extendqisi2
 381 0014 002B     		cmp	r3, #0
 382 0016 24D0     		beq	.L14
 383 0018 1420     		movs	r0, #20
 384 001a FFF7FEFF 		bl	pvPortMalloc
 385 001e 3861     		str	r0, [r7, #16]
 386 0020 3B69     		ldr	r3, [r7, #16]
 387 0022 002B     		cmp	r3, #0
 388 0024 1AD0     		beq	.L15
 389 0026 0020     		movs	r0, #0
 390 0028 FFF7FEFF 		bl	W25Q_Erase_Sector
 391 002c 07F10C03 		add	r3, r7, #12
 392 0030 0222     		movs	r2, #2
 393 0032 1946     		mov	r1, r3
 394 0034 4FF4FF70 		mov	r0, #510
 395 0038 FFF7FEFF 		bl	W25Q_Write_Byte
 396 003c 0C49     		ldr	r1, .L18
 397 003e 3869     		ldr	r0, [r7, #16]
 398 0040 FFF7FEFF 		bl	sprintf
ARM GAS  C:\Users\phamt\AppData\Local\Temp\ccmMlYEc.s 			page 8


 399 0044 3869     		ldr	r0, [r7, #16]
 400 0046 FFF7FEFF 		bl	strlen
 401 004a 0346     		mov	r3, r0
 402 004c 6422     		movs	r2, #100
 403 004e 1946     		mov	r1, r3
 404 0050 3869     		ldr	r0, [r7, #16]
 405 0052 FFF7FEFF 		bl	Usart_Transmit
 406 0056 3869     		ldr	r0, [r7, #16]
 407 0058 FFF7FEFF 		bl	vPortFree
 408              	.L15:
 409 005c 0023     		movs	r3, #0
 410 005e FB75     		strb	r3, [r7, #23]
 411 0060 01E0     		b	.L16
 412              	.L14:
 413 0062 0123     		movs	r3, #1
 414 0064 FB75     		strb	r3, [r7, #23]
 415              	.L16:
 416 0066 41F28830 		movw	r0, #5000
 417 006a FFF7FEFF 		bl	vTaskDelay
 418 006e D0E7     		b	.L17
 419              	.L19:
 420              		.align	2
 421              	.L18:
 422 0070 24000000 		.word	.LC3
 424              		.section	.rodata
 425 003b 00       		.align	2
 426              	.LC4:
 427 003c 4C65645F 		.ascii	"Led_blink\000"
 427      626C696E 
 427      6B00
 428 0046 0000     		.align	2
 429              	.LC5:
 430 0048 4C65645F 		.ascii	"Led_blink1\000"
 430      626C696E 
 430      6B3100
 431 0053 00       		.align	2
 432              	.LC6:
 433 0054 5461736B 		.ascii	"Task_flash_w25\000"
 433      5F666C61 
 433      73685F77 
 433      323500
 434              		.section	.text.main,"ax",%progbits
 435              		.align	1
 436              		.global	main
 437              		.syntax unified
 438              		.thumb
 439              		.thumb_func
 441              	main:
 442              		@ args = 0, pretend = 0, frame = 0
 443              		@ frame_needed = 1, uses_anonymous_args = 0
 444 0000 80B5     		push	{r7, lr}
 445 0002 82B0     		sub	sp, sp, #8
 446 0004 02AF     		add	r7, sp, #8
 447 0006 FFF7FEFF 		bl	SystemClock_Config
 448 000a FFF7FEFF 		bl	MX_GPIO_Init
 449 000e FFF7FEFF 		bl	USART1_Init
 450 0012 FFF7FEFF 		bl	SPI_Init
ARM GAS  C:\Users\phamt\AppData\Local\Temp\ccmMlYEc.s 			page 9


 451 0016 FFF7FEFF 		bl	W25Q_Reset
 452 001a 0023     		movs	r3, #0
 453 001c 0193     		str	r3, [sp, #4]
 454 001e 0023     		movs	r3, #0
 455 0020 0093     		str	r3, [sp]
 456 0022 0023     		movs	r3, #0
 457 0024 4022     		movs	r2, #64
 458 0026 0E49     		ldr	r1, .L22
 459 0028 0E48     		ldr	r0, .L22+4
 460 002a FFF7FEFF 		bl	xTaskCreate
 461 002e 0023     		movs	r3, #0
 462 0030 0193     		str	r3, [sp, #4]
 463 0032 0123     		movs	r3, #1
 464 0034 0093     		str	r3, [sp]
 465 0036 0123     		movs	r3, #1
 466 0038 4022     		movs	r2, #64
 467 003a 0B49     		ldr	r1, .L22+8
 468 003c 0948     		ldr	r0, .L22+4
 469 003e FFF7FEFF 		bl	xTaskCreate
 470 0042 0023     		movs	r3, #0
 471 0044 0193     		str	r3, [sp, #4]
 472 0046 0223     		movs	r3, #2
 473 0048 0093     		str	r3, [sp]
 474 004a 0023     		movs	r3, #0
 475 004c 4FF40062 		mov	r2, #2048
 476 0050 0649     		ldr	r1, .L22+12
 477 0052 0748     		ldr	r0, .L22+16
 478 0054 FFF7FEFF 		bl	xTaskCreate
 479 0058 FFF7FEFF 		bl	vTaskStartScheduler
 480              	.L21:
 481 005c FEE7     		b	.L21
 482              	.L23:
 483 005e 00BF     		.align	2
 484              	.L22:
 485 0060 3C000000 		.word	.LC4
 486 0064 00000000 		.word	vTaskLED
 487 0068 48000000 		.word	.LC5
 488 006c 54000000 		.word	.LC6
 489 0070 00000000 		.word	vTaskFlash_W25
 491              		.section	.text.Error_Handler,"ax",%progbits
 492              		.align	1
 493              		.global	Error_Handler
 494              		.syntax unified
 495              		.thumb
 496              		.thumb_func
 498              	Error_Handler:
 499              		@ args = 0, pretend = 0, frame = 0
 500              		@ frame_needed = 1, uses_anonymous_args = 0
 501              		@ link register save eliminated.
 502 0000 80B4     		push	{r7}
 503 0002 00AF     		add	r7, sp, #0
 504              		.syntax unified
 505              	@ 962 "Drivers/CMSIS/Include/cmsis_gcc.h" 1
 506 0004 72B6     		cpsid i
 507              	@ 0 "" 2
 508              		.thumb
 509              		.syntax unified
ARM GAS  C:\Users\phamt\AppData\Local\Temp\ccmMlYEc.s 			page 10


 510 0006 00BF     		nop
 511              	.L25:
 512 0008 FEE7     		b	.L25
 514              		.ident	"GCC: (GNU Arm Embedded Toolchain 10.3-2021.10) 10.3.1 20210824 (release)"
ARM GAS  C:\Users\phamt\AppData\Local\Temp\ccmMlYEc.s 			page 11


DEFINED SYMBOLS
                            *ABS*:00000000 main.c
C:\Users\phamt\AppData\Local\Temp\ccmMlYEc.s:18     .rodata:00000000 $d
C:\Users\phamt\AppData\Local\Temp\ccmMlYEc.s:23     .text.vTaskLED:00000000 $t
C:\Users\phamt\AppData\Local\Temp\ccmMlYEc.s:29     .text.vTaskLED:00000000 vTaskLED
C:\Users\phamt\AppData\Local\Temp\ccmMlYEc.s:60     .text.vTaskLED:00000038 $d
C:\Users\phamt\AppData\Local\Temp\ccmMlYEc.s:64     .text.vTask1:00000000 $t
C:\Users\phamt\AppData\Local\Temp\ccmMlYEc.s:70     .text.vTask1:00000000 vTask1
C:\Users\phamt\AppData\Local\Temp\ccmMlYEc.s:114    .text.vTaskFlash_W25:00000000 $t
C:\Users\phamt\AppData\Local\Temp\ccmMlYEc.s:120    .text.vTaskFlash_W25:00000000 vTaskFlash_W25
C:\Users\phamt\AppData\Local\Temp\ccmMlYEc.s:357    .text.vTaskFlash_W25:00000220 $d
C:\Users\phamt\AppData\Local\Temp\ccmMlYEc.s:362    .text.vTaskFlash_W25Q2:00000000 $t
C:\Users\phamt\AppData\Local\Temp\ccmMlYEc.s:368    .text.vTaskFlash_W25Q2:00000000 vTaskFlash_W25Q2
C:\Users\phamt\AppData\Local\Temp\ccmMlYEc.s:422    .text.vTaskFlash_W25Q2:00000070 $d
C:\Users\phamt\AppData\Local\Temp\ccmMlYEc.s:435    .text.main:00000000 $t
C:\Users\phamt\AppData\Local\Temp\ccmMlYEc.s:441    .text.main:00000000 main
C:\Users\phamt\AppData\Local\Temp\ccmMlYEc.s:485    .text.main:00000060 $d
C:\Users\phamt\AppData\Local\Temp\ccmMlYEc.s:492    .text.Error_Handler:00000000 $t
C:\Users\phamt\AppData\Local\Temp\ccmMlYEc.s:498    .text.Error_Handler:00000000 Error_Handler

UNDEFINED SYMBOLS
gpio_tog
vTaskDelay
pvPortMalloc
memset
GetFromBuff_DMA
Usart_Send_Char
Usart_Send_String
vPortFree
W25Q_ReadID
strlen
Usart_Transmit
W25Q_Read_Byte
sprintf
W25Q_Erase_Sector
W25Q_Write_Byte
SystemClock_Config
MX_GPIO_Init
USART1_Init
SPI_Init
W25Q_Reset
xTaskCreate
vTaskStartScheduler
