ARM GAS  C:\Users\phamt\AppData\Local\Temp\ccFGvpoi.s 			page 1


   1              		.cpu cortex-m4
   2              		.arch armv7e-m
   3              		.fpu fpv4-sp-d16
   4              		.eabi_attribute 27, 1
   5              		.eabi_attribute 28, 1
   6              		.eabi_attribute 20, 1
   7              		.eabi_attribute 21, 1
   8              		.eabi_attribute 23, 3
   9              		.eabi_attribute 24, 1
  10              		.eabi_attribute 25, 1
  11              		.eabi_attribute 26, 1
  12              		.eabi_attribute 30, 6
  13              		.eabi_attribute 34, 1
  14              		.eabi_attribute 18, 4
  15              		.file	"main.c"
  16              		.text
  17              		.section	.rodata
  18              		.align	2
  19              	.LC0:
  20 0000 D007     		.short	2000
  21 0002 F401     		.short	500
  22              		.section	.text.vTaskLED,"ax",%progbits
  23              		.align	1
  24              		.global	vTaskLED
  25              		.syntax unified
  26              		.thumb
  27              		.thumb_func
  29              	vTaskLED:
  30              		@ args = 0, pretend = 0, frame = 16
  31              		@ frame_needed = 1, uses_anonymous_args = 0
  32 0000 80B5     		push	{r7, lr}
  33 0002 84B0     		sub	sp, sp, #16
  34 0004 00AF     		add	r7, sp, #0
  35 0006 7860     		str	r0, [r7, #4]
  36 0008 7B68     		ldr	r3, [r7, #4]
  37 000a FB60     		str	r3, [r7, #12]
  38 000c 0A4B     		ldr	r3, .L3
  39 000e 1B68     		ldr	r3, [r3]
  40 0010 BB60     		str	r3, [r7, #8]
  41              	.L2:
  42 0012 FB68     		ldr	r3, [r7, #12]
  43 0014 9BB2     		uxth	r3, r3
  44 0016 0633     		adds	r3, r3, #6
  45 0018 9BB2     		uxth	r3, r3
  46 001a 1946     		mov	r1, r3
  47 001c 0748     		ldr	r0, .L3+4
  48 001e FFF7FEFF 		bl	gpio_tog
  49 0022 FB68     		ldr	r3, [r7, #12]
  50 0024 5B00     		lsls	r3, r3, #1
  51 0026 1033     		adds	r3, r3, #16
  52 0028 3B44     		add	r3, r3, r7
  53 002a 33F8083C 		ldrh	r3, [r3, #-8]
  54 002e 1846     		mov	r0, r3
  55 0030 FFF7FEFF 		bl	vTaskDelay
  56 0034 EDE7     		b	.L2
  57              	.L4:
  58 0036 00BF     		.align	2
ARM GAS  C:\Users\phamt\AppData\Local\Temp\ccFGvpoi.s 			page 2


  59              	.L3:
  60 0038 00000000 		.word	.LC0
  61 003c 00000240 		.word	1073872896
  63              		.section	.text.vTask1,"ax",%progbits
  64              		.align	1
  65              		.global	vTask1
  66              		.syntax unified
  67              		.thumb
  68              		.thumb_func
  70              	vTask1:
  71              		@ args = 0, pretend = 0, frame = 16
  72              		@ frame_needed = 1, uses_anonymous_args = 0
  73 0000 80B5     		push	{r7, lr}
  74 0002 84B0     		sub	sp, sp, #16
  75 0004 00AF     		add	r7, sp, #0
  76 0006 7860     		str	r0, [r7, #4]
  77              	.L7:
  78 0008 1820     		movs	r0, #24
  79 000a FFF7FEFF 		bl	pvPortMalloc
  80 000e F860     		str	r0, [r7, #12]
  81 0010 1822     		movs	r2, #24
  82 0012 0021     		movs	r1, #0
  83 0014 F868     		ldr	r0, [r7, #12]
  84 0016 FFF7FEFF 		bl	memset
  85 001a FB68     		ldr	r3, [r7, #12]
  86 001c 002B     		cmp	r3, #0
  87 001e 0ED0     		beq	.L6
  88 0020 F868     		ldr	r0, [r7, #12]
  89 0022 FFF7FEFF 		bl	GetFromBuff_DMA
  90 0026 0A20     		movs	r0, #10
  91 0028 FFF7FEFF 		bl	Usart_Send_Char
  92 002c F868     		ldr	r0, [r7, #12]
  93 002e FFF7FEFF 		bl	Usart_Send_String
  94 0032 0A20     		movs	r0, #10
  95 0034 FFF7FEFF 		bl	Usart_Send_Char
  96 0038 F868     		ldr	r0, [r7, #12]
  97 003a FFF7FEFF 		bl	vPortFree
  98              	.L6:
  99 003e 6420     		movs	r0, #100
 100 0040 FFF7FEFF 		bl	vTaskDelay
 101 0044 E0E7     		b	.L7
 103              		.section	.rodata
 104              		.align	2
 105              	.LC1:
 106 0004 20307825 		.ascii	" 0x%02X%02X%02X%02X \015\012\000"
 106      30325825 
 106      30325825 
 106      30325825 
 106      30325820 
 107              		.section	.text.vTaskFlash_W25,"ax",%progbits
 108              		.align	1
 109              		.global	vTaskFlash_W25
 110              		.syntax unified
 111              		.thumb
 112              		.thumb_func
 114              	vTaskFlash_W25:
 115              		@ args = 0, pretend = 0, frame = 16
ARM GAS  C:\Users\phamt\AppData\Local\Temp\ccFGvpoi.s 			page 3


 116              		@ frame_needed = 1, uses_anonymous_args = 0
 117 0000 80B5     		push	{r7, lr}
 118 0002 86B0     		sub	sp, sp, #24
 119 0004 02AF     		add	r7, sp, #8
 120 0006 7860     		str	r0, [r7, #4]
 121              	.L9:
 122 0008 2820     		movs	r0, #40
 123 000a FFF7FEFF 		bl	pvPortMalloc
 124 000e F860     		str	r0, [r7, #12]
 125 0010 1020     		movs	r0, #16
 126 0012 FFF7FEFF 		bl	pvPortMalloc
 127 0016 B860     		str	r0, [r7, #8]
 128 0018 4FF47A73 		mov	r3, #1000
 129 001c 1022     		movs	r2, #16
 130 001e B968     		ldr	r1, [r7, #8]
 131 0020 0020     		movs	r0, #0
 132 0022 FFF7FEFF 		bl	W25Q_Read_Byte
 133 0026 BB68     		ldr	r3, [r7, #8]
 134 0028 1B78     		ldrb	r3, [r3]	@ zero_extendqisi2
 135 002a 1946     		mov	r1, r3
 136 002c BB68     		ldr	r3, [r7, #8]
 137 002e 0133     		adds	r3, r3, #1
 138 0030 1B78     		ldrb	r3, [r3]	@ zero_extendqisi2
 139 0032 1846     		mov	r0, r3
 140 0034 BB68     		ldr	r3, [r7, #8]
 141 0036 0233     		adds	r3, r3, #2
 142 0038 1B78     		ldrb	r3, [r3]	@ zero_extendqisi2
 143 003a 1A46     		mov	r2, r3
 144 003c BB68     		ldr	r3, [r7, #8]
 145 003e 0333     		adds	r3, r3, #3
 146 0040 1B78     		ldrb	r3, [r3]	@ zero_extendqisi2
 147 0042 0193     		str	r3, [sp, #4]
 148 0044 0092     		str	r2, [sp]
 149 0046 0346     		mov	r3, r0
 150 0048 0A46     		mov	r2, r1
 151 004a 0C49     		ldr	r1, .L10
 152 004c F868     		ldr	r0, [r7, #12]
 153 004e FFF7FEFF 		bl	sprintf
 154 0052 F868     		ldr	r0, [r7, #12]
 155 0054 FFF7FEFF 		bl	strlen
 156 0058 0346     		mov	r3, r0
 157 005a 4FF47A72 		mov	r2, #1000
 158 005e 1946     		mov	r1, r3
 159 0060 F868     		ldr	r0, [r7, #12]
 160 0062 FFF7FEFF 		bl	Usart_Transmit
 161 0066 F868     		ldr	r0, [r7, #12]
 162 0068 FFF7FEFF 		bl	vPortFree
 163 006c B868     		ldr	r0, [r7, #8]
 164 006e FFF7FEFF 		bl	vPortFree
 165 0072 4FF4FA60 		mov	r0, #2000
 166 0076 FFF7FEFF 		bl	vTaskDelay
 167 007a C5E7     		b	.L9
 168              	.L11:
 169              		.align	2
 170              	.L10:
 171 007c 04000000 		.word	.LC1
 173              		.section	.rodata
ARM GAS  C:\Users\phamt\AppData\Local\Temp\ccFGvpoi.s 			page 4


 174 001b 00       		.align	2
 175              	.LC2:
 176 001c 4C65645F 		.ascii	"Led_blink\000"
 176      626C696E 
 176      6B00
 177 0026 0000     		.align	2
 178              	.LC3:
 179 0028 4C65645F 		.ascii	"Led_blink1\000"
 179      626C696E 
 179      6B3100
 180 0033 00       		.align	2
 181              	.LC4:
 182 0034 5461736B 		.ascii	"Task_flash_w25\000"
 182      5F666C61 
 182      73685F77 
 182      323500
 183              		.section	.text.main,"ax",%progbits
 184              		.align	1
 185              		.global	main
 186              		.syntax unified
 187              		.thumb
 188              		.thumb_func
 190              	main:
 191              		@ args = 0, pretend = 0, frame = 0
 192              		@ frame_needed = 1, uses_anonymous_args = 0
 193 0000 80B5     		push	{r7, lr}
 194 0002 82B0     		sub	sp, sp, #8
 195 0004 02AF     		add	r7, sp, #8
 196 0006 FFF7FEFF 		bl	SystemClock_Config
 197 000a FFF7FEFF 		bl	MX_GPIO_Init
 198 000e FFF7FEFF 		bl	USART1_Init
 199 0012 FFF7FEFF 		bl	SPI_Init
 200 0016 FFF7FEFF 		bl	W25Q_Reset
 201 001a 0023     		movs	r3, #0
 202 001c 0193     		str	r3, [sp, #4]
 203 001e 0023     		movs	r3, #0
 204 0020 0093     		str	r3, [sp]
 205 0022 0023     		movs	r3, #0
 206 0024 4022     		movs	r2, #64
 207 0026 0E49     		ldr	r1, .L14
 208 0028 0E48     		ldr	r0, .L14+4
 209 002a FFF7FEFF 		bl	xTaskCreate
 210 002e 0023     		movs	r3, #0
 211 0030 0193     		str	r3, [sp, #4]
 212 0032 0123     		movs	r3, #1
 213 0034 0093     		str	r3, [sp]
 214 0036 0123     		movs	r3, #1
 215 0038 4022     		movs	r2, #64
 216 003a 0B49     		ldr	r1, .L14+8
 217 003c 0948     		ldr	r0, .L14+4
 218 003e FFF7FEFF 		bl	xTaskCreate
 219 0042 0023     		movs	r3, #0
 220 0044 0193     		str	r3, [sp, #4]
 221 0046 0223     		movs	r3, #2
 222 0048 0093     		str	r3, [sp]
 223 004a 0023     		movs	r3, #0
 224 004c 4FF40062 		mov	r2, #2048
ARM GAS  C:\Users\phamt\AppData\Local\Temp\ccFGvpoi.s 			page 5


 225 0050 0649     		ldr	r1, .L14+12
 226 0052 0748     		ldr	r0, .L14+16
 227 0054 FFF7FEFF 		bl	xTaskCreate
 228 0058 FFF7FEFF 		bl	vTaskStartScheduler
 229              	.L13:
 230 005c FEE7     		b	.L13
 231              	.L15:
 232 005e 00BF     		.align	2
 233              	.L14:
 234 0060 1C000000 		.word	.LC2
 235 0064 00000000 		.word	vTaskLED
 236 0068 28000000 		.word	.LC3
 237 006c 34000000 		.word	.LC4
 238 0070 00000000 		.word	vTaskFlash_W25
 240              		.section	.text.Error_Handler,"ax",%progbits
 241              		.align	1
 242              		.global	Error_Handler
 243              		.syntax unified
 244              		.thumb
 245              		.thumb_func
 247              	Error_Handler:
 248              		@ args = 0, pretend = 0, frame = 0
 249              		@ frame_needed = 1, uses_anonymous_args = 0
 250              		@ link register save eliminated.
 251 0000 80B4     		push	{r7}
 252 0002 00AF     		add	r7, sp, #0
 253              		.syntax unified
 254              	@ 962 "Drivers/CMSIS/Include/cmsis_gcc.h" 1
 255 0004 72B6     		cpsid i
 256              	@ 0 "" 2
 257              		.thumb
 258              		.syntax unified
 259 0006 00BF     		nop
 260              	.L17:
 261 0008 FEE7     		b	.L17
 263              		.ident	"GCC: (GNU Arm Embedded Toolchain 10.3-2021.10) 10.3.1 20210824 (release)"
ARM GAS  C:\Users\phamt\AppData\Local\Temp\ccFGvpoi.s 			page 6


DEFINED SYMBOLS
                            *ABS*:00000000 main.c
C:\Users\phamt\AppData\Local\Temp\ccFGvpoi.s:18     .rodata:00000000 $d
C:\Users\phamt\AppData\Local\Temp\ccFGvpoi.s:23     .text.vTaskLED:00000000 $t
C:\Users\phamt\AppData\Local\Temp\ccFGvpoi.s:29     .text.vTaskLED:00000000 vTaskLED
C:\Users\phamt\AppData\Local\Temp\ccFGvpoi.s:60     .text.vTaskLED:00000038 $d
C:\Users\phamt\AppData\Local\Temp\ccFGvpoi.s:64     .text.vTask1:00000000 $t
C:\Users\phamt\AppData\Local\Temp\ccFGvpoi.s:70     .text.vTask1:00000000 vTask1
C:\Users\phamt\AppData\Local\Temp\ccFGvpoi.s:108    .text.vTaskFlash_W25:00000000 $t
C:\Users\phamt\AppData\Local\Temp\ccFGvpoi.s:114    .text.vTaskFlash_W25:00000000 vTaskFlash_W25
C:\Users\phamt\AppData\Local\Temp\ccFGvpoi.s:171    .text.vTaskFlash_W25:0000007c $d
C:\Users\phamt\AppData\Local\Temp\ccFGvpoi.s:184    .text.main:00000000 $t
C:\Users\phamt\AppData\Local\Temp\ccFGvpoi.s:190    .text.main:00000000 main
C:\Users\phamt\AppData\Local\Temp\ccFGvpoi.s:234    .text.main:00000060 $d
C:\Users\phamt\AppData\Local\Temp\ccFGvpoi.s:241    .text.Error_Handler:00000000 $t
C:\Users\phamt\AppData\Local\Temp\ccFGvpoi.s:247    .text.Error_Handler:00000000 Error_Handler

UNDEFINED SYMBOLS
gpio_tog
vTaskDelay
pvPortMalloc
memset
GetFromBuff_DMA
Usart_Send_Char
Usart_Send_String
vPortFree
W25Q_Read_Byte
sprintf
strlen
Usart_Transmit
SystemClock_Config
MX_GPIO_Init
USART1_Init
SPI_Init
W25Q_Reset
xTaskCreate
vTaskStartScheduler
