ARM GAS  C:\Users\phamt\AppData\Local\Temp\cciArLcB.s 			page 1


   1              		.cpu cortex-m4
   2              		.arch armv7e-m
   3              		.fpu fpv4-sp-d16
   4              		.eabi_attribute 27, 1
   5              		.eabi_attribute 28, 1
   6              		.eabi_attribute 20, 1
   7              		.eabi_attribute 21, 1
   8              		.eabi_attribute 23, 3
   9              		.eabi_attribute 24, 1
  10              		.eabi_attribute 25, 1
  11              		.eabi_attribute 26, 1
  12              		.eabi_attribute 30, 6
  13              		.eabi_attribute 34, 1
  14              		.eabi_attribute 18, 4
  15              		.file	"port.c"
  16              		.text
  17              		.section	.data.uxCriticalNesting,"aw"
  18              		.align	2
  21              	uxCriticalNesting:
  22 0000 AAAAAAAA 		.word	-1431655766
  23              		.section	.bss.ucMaxSysCallPriority,"aw",%nobits
  26              	ucMaxSysCallPriority:
  27 0000 00       		.space	1
  28              		.section	.bss.ulMaxPRIGROUPValue,"aw",%nobits
  29              		.align	2
  32              	ulMaxPRIGROUPValue:
  33 0000 00000000 		.space	4
  34              		.section	.rodata.pcInterruptPriorityRegisters,"a"
  35              		.align	2
  38              	pcInterruptPriorityRegisters:
  39 0000 F0E300E0 		.word	-536812560
  40              		.section	.text.pxPortInitialiseStack,"ax",%progbits
  41              		.align	1
  42              		.global	pxPortInitialiseStack
  43              		.syntax unified
  44              		.thumb
  45              		.thumb_func
  47              	pxPortInitialiseStack:
  48              		@ args = 0, pretend = 0, frame = 16
  49              		@ frame_needed = 1, uses_anonymous_args = 0
  50              		@ link register save eliminated.
  51 0000 80B4     		push	{r7}
  52 0002 85B0     		sub	sp, sp, #20
  53 0004 00AF     		add	r7, sp, #0
  54 0006 F860     		str	r0, [r7, #12]
  55 0008 B960     		str	r1, [r7, #8]
  56 000a 7A60     		str	r2, [r7, #4]
  57 000c FB68     		ldr	r3, [r7, #12]
  58 000e 043B     		subs	r3, r3, #4
  59 0010 FB60     		str	r3, [r7, #12]
  60 0012 FB68     		ldr	r3, [r7, #12]
  61 0014 4FF08072 		mov	r2, #16777216
  62 0018 1A60     		str	r2, [r3]
  63 001a FB68     		ldr	r3, [r7, #12]
  64 001c 043B     		subs	r3, r3, #4
  65 001e FB60     		str	r3, [r7, #12]
  66 0020 BB68     		ldr	r3, [r7, #8]
ARM GAS  C:\Users\phamt\AppData\Local\Temp\cciArLcB.s 			page 2


  67 0022 23F00102 		bic	r2, r3, #1
  68 0026 FB68     		ldr	r3, [r7, #12]
  69 0028 1A60     		str	r2, [r3]
  70 002a FB68     		ldr	r3, [r7, #12]
  71 002c 043B     		subs	r3, r3, #4
  72 002e FB60     		str	r3, [r7, #12]
  73 0030 0C4A     		ldr	r2, .L3
  74 0032 FB68     		ldr	r3, [r7, #12]
  75 0034 1A60     		str	r2, [r3]
  76 0036 FB68     		ldr	r3, [r7, #12]
  77 0038 143B     		subs	r3, r3, #20
  78 003a FB60     		str	r3, [r7, #12]
  79 003c 7A68     		ldr	r2, [r7, #4]
  80 003e FB68     		ldr	r3, [r7, #12]
  81 0040 1A60     		str	r2, [r3]
  82 0042 FB68     		ldr	r3, [r7, #12]
  83 0044 043B     		subs	r3, r3, #4
  84 0046 FB60     		str	r3, [r7, #12]
  85 0048 FB68     		ldr	r3, [r7, #12]
  86 004a 6FF00202 		mvn	r2, #2
  87 004e 1A60     		str	r2, [r3]
  88 0050 FB68     		ldr	r3, [r7, #12]
  89 0052 203B     		subs	r3, r3, #32
  90 0054 FB60     		str	r3, [r7, #12]
  91 0056 FB68     		ldr	r3, [r7, #12]
  92 0058 1846     		mov	r0, r3
  93 005a 1437     		adds	r7, r7, #20
  94 005c BD46     		mov	sp, r7
  95              		@ sp needed
  96 005e 5DF8047B 		ldr	r7, [sp], #4
  97 0062 7047     		bx	lr
  98              	.L4:
  99              		.align	2
 100              	.L3:
 101 0064 00000000 		.word	prvTaskExitError
 103              		.section	.text.prvTaskExitError,"ax",%progbits
 104              		.align	1
 105              		.syntax unified
 106              		.thumb
 107              		.thumb_func
 109              	prvTaskExitError:
 110              		@ args = 0, pretend = 0, frame = 16
 111              		@ frame_needed = 1, uses_anonymous_args = 0
 112              		@ link register save eliminated.
 113 0000 80B4     		push	{r7}
 114 0002 85B0     		sub	sp, sp, #20
 115 0004 00AF     		add	r7, sp, #0
 116 0006 0023     		movs	r3, #0
 117 0008 7B60     		str	r3, [r7, #4]
 118 000a 124B     		ldr	r3, .L9
 119 000c 1B68     		ldr	r3, [r3]
 120 000e B3F1FF3F 		cmp	r3, #-1
 121 0012 0AD0     		beq	.L6
 122              		.syntax unified
 123              	@ 217 "FreeRTOS/portable/GCC/ARM_CM4F/portmacro.h" 1
 124 0014 4FF05003 		   mov r3, #80                                              
 125 0018 83F31188 	   msr basepri, r3                                         
ARM GAS  C:\Users\phamt\AppData\Local\Temp\cciArLcB.s 			page 3


 126 001c BFF36F8F 	   isb                                                     
 127 0020 BFF34F8F 	   dsb                                                     
 128              	
 129              	@ 0 "" 2
 130              		.thumb
 131              		.syntax unified
 132 0024 FB60     		str	r3, [r7, #12]
 133 0026 00BF     		nop
 134              	.L7:
 135 0028 FEE7     		b	.L7
 136              	.L6:
 137              		.syntax unified
 138              	@ 217 "FreeRTOS/portable/GCC/ARM_CM4F/portmacro.h" 1
 139 002a 4FF05003 		   mov r3, #80                                              
 140 002e 83F31188 	   msr basepri, r3                                         
 141 0032 BFF36F8F 	   isb                                                     
 142 0036 BFF34F8F 	   dsb                                                     
 143              	
 144              	@ 0 "" 2
 145              		.thumb
 146              		.syntax unified
 147 003a BB60     		str	r3, [r7, #8]
 148 003c 00BF     		nop
 149 003e 00BF     		nop
 150              	.L8:
 151 0040 7B68     		ldr	r3, [r7, #4]
 152 0042 002B     		cmp	r3, #0
 153 0044 FCD0     		beq	.L8
 154 0046 00BF     		nop
 155 0048 00BF     		nop
 156 004a 1437     		adds	r7, r7, #20
 157 004c BD46     		mov	sp, r7
 158              		@ sp needed
 159 004e 5DF8047B 		ldr	r7, [sp], #4
 160 0052 7047     		bx	lr
 161              	.L10:
 162              		.align	2
 163              	.L9:
 164 0054 00000000 		.word	uxCriticalNesting
 166              		.section	.text.SVC_Handler,"ax",%progbits
 167              		.align	1
 168              		.global	SVC_Handler
 169              		.syntax unified
 170              		.thumb
 171              		.thumb_func
 173              	SVC_Handler:
 174              		@ Naked Function: prologue and epilogue provided by programmer.
 175              		@ args = 0, pretend = 0, frame = 0
 176              		@ frame_needed = 1, uses_anonymous_args = 0
 177              		.syntax unified
 178              	@ 262 "FreeRTOS/portable/GCC/ARM_CM4F/port.c" 1
 179 0000 064B     		   ldr r3, =pxCurrentTCB           
 180 0002 1968     	   ldr r1, [r3]                    
 181 0004 0868     	   ldr r0, [r1]                    
 182 0006 B0E8F04F 	   ldmia r0!, {r4-r11, r14}        
 183 000a 80F30988 	   msr psp, r0                     
 184 000e BFF36F8F 	   isb                             
ARM GAS  C:\Users\phamt\AppData\Local\Temp\cciArLcB.s 			page 4


 185 0012 4FF00000 	   mov r0, #0                      
 186 0016 80F31188 	   msr basepri, r0                 
 187 001a 7047     	   bx r14                          
 188              	                                   
 189 001c 00000000 	   .ltorg                          
 190              	
 191              	@ 0 "" 2
 192              		.thumb
 193              		.syntax unified
 194 0020 00BF     		nop
 196 0022 00BF     		.section	.text.prvPortStartFirstTask,"ax",%progbits
 197              		.align	1
 198              		.syntax unified
 199              		.thumb
 200              		.thumb_func
 202              	prvPortStartFirstTask:
 203              		@ Naked Function: prologue and epilogue provided by programmer.
 204              		@ args = 0, pretend = 0, frame = 0
 205              		@ frame_needed = 1, uses_anonymous_args = 0
 206              		.syntax unified
 207              	@ 284 "FreeRTOS/portable/GCC/ARM_CM4F/port.c" 1
 208 0000 0848     		 ldr r0, =0xE000ED08   
 209 0002 0068     	 ldr r0, [r0]          
 210 0004 0068     	 ldr r0, [r0]          
 211 0006 80F30888 	 msr msp, r0           
 212 000a 4FF00000 	 mov r0, #0            
 213 000e 80F31488 	 msr control, r0       
 214 0012 62B6     	 cpsie i               
 215 0014 61B6     	 cpsie f               
 216 0016 BFF34F8F 	 dsb                   
 217 001a BFF36F8F 	 isb                   
 218 001e 00DF     	 svc 0                 
 219 0020 00BF     	 nop                   
 220 0022 000008ED 	 .ltorg                
 220      00E0
 221              	
 222              	@ 0 "" 2
 223              		.thumb
 224              		.syntax unified
 225 0028 00BF     		nop
 227 002a 00BF     		.section	.text.xPortStartScheduler,"ax",%progbits
 228              		.align	1
 229              		.global	xPortStartScheduler
 230              		.syntax unified
 231              		.thumb
 232              		.thumb_func
 234              	xPortStartScheduler:
 235              		@ args = 0, pretend = 0, frame = 48
 236              		@ frame_needed = 1, uses_anonymous_args = 0
 237 0000 80B5     		push	{r7, lr}
 238 0002 8CB0     		sub	sp, sp, #48
 239 0004 00AF     		add	r7, sp, #0
 240 0006 664B     		ldr	r3, .L31
 241 0008 1B68     		ldr	r3, [r3]
 242 000a 664A     		ldr	r2, .L31+4
 243 000c 9342     		cmp	r3, r2
 244 000e 0AD1     		bne	.L14
ARM GAS  C:\Users\phamt\AppData\Local\Temp\cciArLcB.s 			page 5


 245              		.syntax unified
 246              	@ 217 "FreeRTOS/portable/GCC/ARM_CM4F/portmacro.h" 1
 247 0010 4FF05003 		   mov r3, #80                                              
 248 0014 83F31188 	   msr basepri, r3                                         
 249 0018 BFF36F8F 	   isb                                                     
 250 001c BFF34F8F 	   dsb                                                     
 251              	
 252              	@ 0 "" 2
 253              		.thumb
 254              		.syntax unified
 255 0020 7B62     		str	r3, [r7, #36]
 256 0022 00BF     		nop
 257              	.L15:
 258 0024 FEE7     		b	.L15
 259              	.L14:
 260 0026 5E4B     		ldr	r3, .L31
 261 0028 1B68     		ldr	r3, [r3]
 262 002a 5F4A     		ldr	r2, .L31+8
 263 002c 9342     		cmp	r3, r2
 264 002e 0AD1     		bne	.L16
 265              		.syntax unified
 266              	@ 217 "FreeRTOS/portable/GCC/ARM_CM4F/portmacro.h" 1
 267 0030 4FF05003 		   mov r3, #80                                              
 268 0034 83F31188 	   msr basepri, r3                                         
 269 0038 BFF36F8F 	   isb                                                     
 270 003c BFF34F8F 	   dsb                                                     
 271              	
 272              	@ 0 "" 2
 273              		.thumb
 274              		.syntax unified
 275 0040 3B62     		str	r3, [r7, #32]
 276 0042 00BF     		nop
 277              	.L17:
 278 0044 FEE7     		b	.L17
 279              	.L16:
 280 0046 594B     		ldr	r3, .L31+12
 281 0048 1B68     		ldr	r3, [r3]
 282 004a FB62     		str	r3, [r7, #44]
 283 004c FB6A     		ldr	r3, [r7, #44]
 284 004e 2C33     		adds	r3, r3, #44
 285 0050 1B68     		ldr	r3, [r3]
 286 0052 574A     		ldr	r2, .L31+16
 287 0054 9342     		cmp	r3, r2
 288 0056 0AD0     		beq	.L18
 289              		.syntax unified
 290              	@ 217 "FreeRTOS/portable/GCC/ARM_CM4F/portmacro.h" 1
 291 0058 4FF05003 		   mov r3, #80                                              
 292 005c 83F31188 	   msr basepri, r3                                         
 293 0060 BFF36F8F 	   isb                                                     
 294 0064 BFF34F8F 	   dsb                                                     
 295              	
 296              	@ 0 "" 2
 297              		.thumb
 298              		.syntax unified
 299 0068 FB61     		str	r3, [r7, #28]
 300 006a 00BF     		nop
 301              	.L19:
ARM GAS  C:\Users\phamt\AppData\Local\Temp\cciArLcB.s 			page 6


 302 006c FEE7     		b	.L19
 303              	.L18:
 304 006e FB6A     		ldr	r3, [r7, #44]
 305 0070 3833     		adds	r3, r3, #56
 306 0072 1B68     		ldr	r3, [r3]
 307 0074 4F4A     		ldr	r2, .L31+20
 308 0076 9342     		cmp	r3, r2
 309 0078 0AD0     		beq	.L20
 310              		.syntax unified
 311              	@ 217 "FreeRTOS/portable/GCC/ARM_CM4F/portmacro.h" 1
 312 007a 4FF05003 		   mov r3, #80                                              
 313 007e 83F31188 	   msr basepri, r3                                         
 314 0082 BFF36F8F 	   isb                                                     
 315 0086 BFF34F8F 	   dsb                                                     
 316              	
 317              	@ 0 "" 2
 318              		.thumb
 319              		.syntax unified
 320 008a BB61     		str	r3, [r7, #24]
 321 008c 00BF     		nop
 322              	.L21:
 323 008e FEE7     		b	.L21
 324              	.L20:
 325 0090 0023     		movs	r3, #0
 326 0092 BB60     		str	r3, [r7, #8]
 327 0094 484B     		ldr	r3, .L31+24
 328 0096 BB62     		str	r3, [r7, #40]
 329 0098 BB6A     		ldr	r3, [r7, #40]
 330 009a 1B78     		ldrb	r3, [r3]
 331 009c DBB2     		uxtb	r3, r3
 332 009e FB73     		strb	r3, [r7, #15]
 333 00a0 BB6A     		ldr	r3, [r7, #40]
 334 00a2 FF22     		movs	r2, #255
 335 00a4 1A70     		strb	r2, [r3]
 336 00a6 BB6A     		ldr	r3, [r7, #40]
 337 00a8 1B78     		ldrb	r3, [r3]
 338 00aa DBB2     		uxtb	r3, r3
 339 00ac FB71     		strb	r3, [r7, #7]
 340 00ae FB79     		ldrb	r3, [r7, #7]
 341 00b0 DBB2     		uxtb	r3, r3
 342 00b2 03F05003 		and	r3, r3, #80
 343 00b6 DAB2     		uxtb	r2, r3
 344 00b8 404B     		ldr	r3, .L31+28
 345 00ba 1A70     		strb	r2, [r3]
 346 00bc 3F4B     		ldr	r3, .L31+28
 347 00be 1B78     		ldrb	r3, [r3]	@ zero_extendqisi2
 348 00c0 002B     		cmp	r3, #0
 349 00c2 0AD1     		bne	.L22
 350              		.syntax unified
 351              	@ 217 "FreeRTOS/portable/GCC/ARM_CM4F/portmacro.h" 1
 352 00c4 4FF05003 		   mov r3, #80                                              
 353 00c8 83F31188 	   msr basepri, r3                                         
 354 00cc BFF36F8F 	   isb                                                     
 355 00d0 BFF34F8F 	   dsb                                                     
 356              	
 357              	@ 0 "" 2
 358              		.thumb
ARM GAS  C:\Users\phamt\AppData\Local\Temp\cciArLcB.s 			page 7


 359              		.syntax unified
 360 00d4 7B61     		str	r3, [r7, #20]
 361 00d6 00BF     		nop
 362              	.L23:
 363 00d8 FEE7     		b	.L23
 364              	.L22:
 365 00da FB79     		ldrb	r3, [r7, #7]
 366 00dc DBB2     		uxtb	r3, r3
 367 00de DB43     		mvns	r3, r3
 368 00e0 03F05003 		and	r3, r3, #80
 369 00e4 002B     		cmp	r3, #0
 370 00e6 12D0     		beq	.L26
 371              		.syntax unified
 372              	@ 217 "FreeRTOS/portable/GCC/ARM_CM4F/portmacro.h" 1
 373 00e8 4FF05003 		   mov r3, #80                                              
 374 00ec 83F31188 	   msr basepri, r3                                         
 375 00f0 BFF36F8F 	   isb                                                     
 376 00f4 BFF34F8F 	   dsb                                                     
 377              	
 378              	@ 0 "" 2
 379              		.thumb
 380              		.syntax unified
 381 00f8 3B61     		str	r3, [r7, #16]
 382 00fa 00BF     		nop
 383              	.L25:
 384 00fc FEE7     		b	.L25
 385              	.L27:
 386 00fe BB68     		ldr	r3, [r7, #8]
 387 0100 0133     		adds	r3, r3, #1
 388 0102 BB60     		str	r3, [r7, #8]
 389 0104 FB79     		ldrb	r3, [r7, #7]
 390 0106 DBB2     		uxtb	r3, r3
 391 0108 5B00     		lsls	r3, r3, #1
 392 010a DBB2     		uxtb	r3, r3
 393 010c FB71     		strb	r3, [r7, #7]
 394              	.L26:
 395 010e FB79     		ldrb	r3, [r7, #7]
 396 0110 DBB2     		uxtb	r3, r3
 397 0112 03F08003 		and	r3, r3, #128
 398 0116 802B     		cmp	r3, #128
 399 0118 F1D0     		beq	.L27
 400 011a BB68     		ldr	r3, [r7, #8]
 401 011c 082B     		cmp	r3, #8
 402 011e 03D1     		bne	.L28
 403 0120 274B     		ldr	r3, .L31+32
 404 0122 0022     		movs	r2, #0
 405 0124 1A60     		str	r2, [r3]
 406 0126 04E0     		b	.L29
 407              	.L28:
 408 0128 BB68     		ldr	r3, [r7, #8]
 409 012a C3F10703 		rsb	r3, r3, #7
 410 012e 244A     		ldr	r2, .L31+32
 411 0130 1360     		str	r3, [r2]
 412              	.L29:
 413 0132 234B     		ldr	r3, .L31+32
 414 0134 1B68     		ldr	r3, [r3]
 415 0136 1B02     		lsls	r3, r3, #8
ARM GAS  C:\Users\phamt\AppData\Local\Temp\cciArLcB.s 			page 8


 416 0138 214A     		ldr	r2, .L31+32
 417 013a 1360     		str	r3, [r2]
 418 013c 204B     		ldr	r3, .L31+32
 419 013e 1B68     		ldr	r3, [r3]
 420 0140 03F4E063 		and	r3, r3, #1792
 421 0144 1E4A     		ldr	r2, .L31+32
 422 0146 1360     		str	r3, [r2]
 423 0148 FB7B     		ldrb	r3, [r7, #15]
 424 014a DAB2     		uxtb	r2, r3
 425 014c BB6A     		ldr	r3, [r7, #40]
 426 014e 1A70     		strb	r2, [r3]
 427 0150 1C4B     		ldr	r3, .L31+36
 428 0152 1B68     		ldr	r3, [r3]
 429 0154 1B4A     		ldr	r2, .L31+36
 430 0156 43F47F03 		orr	r3, r3, #16711680
 431 015a 1360     		str	r3, [r2]
 432 015c 194B     		ldr	r3, .L31+36
 433 015e 1B68     		ldr	r3, [r3]
 434 0160 184A     		ldr	r2, .L31+36
 435 0162 43F07F43 		orr	r3, r3, #-16777216
 436 0166 1360     		str	r3, [r2]
 437 0168 174B     		ldr	r3, .L31+40
 438 016a 0022     		movs	r2, #0
 439 016c 1A60     		str	r2, [r3]
 440 016e FFF7FEFF 		bl	vPortSetupTimerInterrupt
 441 0172 164B     		ldr	r3, .L31+44
 442 0174 0022     		movs	r2, #0
 443 0176 1A60     		str	r2, [r3]
 444 0178 FFF7FEFF 		bl	vPortEnableVFP
 445 017c 144B     		ldr	r3, .L31+48
 446 017e 1B68     		ldr	r3, [r3]
 447 0180 134A     		ldr	r2, .L31+48
 448 0182 43F04043 		orr	r3, r3, #-1073741824
 449 0186 1360     		str	r3, [r2]
 450 0188 FFF7FEFF 		bl	prvPortStartFirstTask
 451 018c FFF7FEFF 		bl	vTaskSwitchContext
 452 0190 FFF7FEFF 		bl	prvTaskExitError
 453 0194 0023     		movs	r3, #0
 454 0196 1846     		mov	r0, r3
 455 0198 3037     		adds	r7, r7, #48
 456 019a BD46     		mov	sp, r7
 457              		@ sp needed
 458 019c 80BD     		pop	{r7, pc}
 459              	.L32:
 460 019e 00BF     		.align	2
 461              	.L31:
 462 01a0 00ED00E0 		.word	-536810240
 463 01a4 71C20F41 		.word	1091551857
 464 01a8 70C20F41 		.word	1091551856
 465 01ac 08ED00E0 		.word	-536810232
 466 01b0 00000000 		.word	SVC_Handler
 467 01b4 00000000 		.word	PendSV_Handler
 468 01b8 00E400E0 		.word	-536812544
 469 01bc 00000000 		.word	ucMaxSysCallPriority
 470 01c0 00000000 		.word	ulMaxPRIGROUPValue
 471 01c4 20ED00E0 		.word	-536810208
 472 01c8 1CED00E0 		.word	-536810212
ARM GAS  C:\Users\phamt\AppData\Local\Temp\cciArLcB.s 			page 9


 473 01cc 00000000 		.word	uxCriticalNesting
 474 01d0 34EF00E0 		.word	-536809676
 476              		.section	.text.vPortEndScheduler,"ax",%progbits
 477              		.align	1
 478              		.global	vPortEndScheduler
 479              		.syntax unified
 480              		.thumb
 481              		.thumb_func
 483              	vPortEndScheduler:
 484              		@ args = 0, pretend = 0, frame = 8
 485              		@ frame_needed = 1, uses_anonymous_args = 0
 486              		@ link register save eliminated.
 487 0000 80B4     		push	{r7}
 488 0002 83B0     		sub	sp, sp, #12
 489 0004 00AF     		add	r7, sp, #0
 490 0006 0B4B     		ldr	r3, .L37
 491 0008 1B68     		ldr	r3, [r3]
 492 000a B3F57A7F 		cmp	r3, #1000
 493 000e 0AD0     		beq	.L36
 494              		.syntax unified
 495              	@ 217 "FreeRTOS/portable/GCC/ARM_CM4F/portmacro.h" 1
 496 0010 4FF05003 		   mov r3, #80                                              
 497 0014 83F31188 	   msr basepri, r3                                         
 498 0018 BFF36F8F 	   isb                                                     
 499 001c BFF34F8F 	   dsb                                                     
 500              	
 501              	@ 0 "" 2
 502              		.thumb
 503              		.syntax unified
 504 0020 7B60     		str	r3, [r7, #4]
 505 0022 00BF     		nop
 506              	.L35:
 507 0024 FEE7     		b	.L35
 508              	.L36:
 509 0026 00BF     		nop
 510 0028 0C37     		adds	r7, r7, #12
 511 002a BD46     		mov	sp, r7
 512              		@ sp needed
 513 002c 5DF8047B 		ldr	r7, [sp], #4
 514 0030 7047     		bx	lr
 515              	.L38:
 516 0032 00BF     		.align	2
 517              	.L37:
 518 0034 00000000 		.word	uxCriticalNesting
 520              		.section	.text.vPortEnterCritical,"ax",%progbits
 521              		.align	1
 522              		.global	vPortEnterCritical
 523              		.syntax unified
 524              		.thumb
 525              		.thumb_func
 527              	vPortEnterCritical:
 528              		@ args = 0, pretend = 0, frame = 8
 529              		@ frame_needed = 1, uses_anonymous_args = 0
 530              		@ link register save eliminated.
 531 0000 80B4     		push	{r7}
 532 0002 83B0     		sub	sp, sp, #12
 533 0004 00AF     		add	r7, sp, #0
ARM GAS  C:\Users\phamt\AppData\Local\Temp\cciArLcB.s 			page 10


 534              		.syntax unified
 535              	@ 217 "FreeRTOS/portable/GCC/ARM_CM4F/portmacro.h" 1
 536 0006 4FF05003 		   mov r3, #80                                              
 537 000a 83F31188 	   msr basepri, r3                                         
 538 000e BFF36F8F 	   isb                                                     
 539 0012 BFF34F8F 	   dsb                                                     
 540              	
 541              	@ 0 "" 2
 542              		.thumb
 543              		.syntax unified
 544 0016 7B60     		str	r3, [r7, #4]
 545 0018 00BF     		nop
 546 001a 0F4B     		ldr	r3, .L43
 547 001c 1B68     		ldr	r3, [r3]
 548 001e 0133     		adds	r3, r3, #1
 549 0020 0D4A     		ldr	r2, .L43
 550 0022 1360     		str	r3, [r2]
 551 0024 0C4B     		ldr	r3, .L43
 552 0026 1B68     		ldr	r3, [r3]
 553 0028 012B     		cmp	r3, #1
 554 002a 0FD1     		bne	.L42
 555 002c 0B4B     		ldr	r3, .L43+4
 556 002e 1B68     		ldr	r3, [r3]
 557 0030 DBB2     		uxtb	r3, r3
 558 0032 002B     		cmp	r3, #0
 559 0034 0AD0     		beq	.L42
 560              		.syntax unified
 561              	@ 217 "FreeRTOS/portable/GCC/ARM_CM4F/portmacro.h" 1
 562 0036 4FF05003 		   mov r3, #80                                              
 563 003a 83F31188 	   msr basepri, r3                                         
 564 003e BFF36F8F 	   isb                                                     
 565 0042 BFF34F8F 	   dsb                                                     
 566              	
 567              	@ 0 "" 2
 568              		.thumb
 569              		.syntax unified
 570 0046 3B60     		str	r3, [r7]
 571 0048 00BF     		nop
 572              	.L41:
 573 004a FEE7     		b	.L41
 574              	.L42:
 575 004c 00BF     		nop
 576 004e 0C37     		adds	r7, r7, #12
 577 0050 BD46     		mov	sp, r7
 578              		@ sp needed
 579 0052 5DF8047B 		ldr	r7, [sp], #4
 580 0056 7047     		bx	lr
 581              	.L44:
 582              		.align	2
 583              	.L43:
 584 0058 00000000 		.word	uxCriticalNesting
 585 005c 04ED00E0 		.word	-536810236
 587              		.section	.text.vPortExitCritical,"ax",%progbits
 588              		.align	1
 589              		.global	vPortExitCritical
 590              		.syntax unified
 591              		.thumb
ARM GAS  C:\Users\phamt\AppData\Local\Temp\cciArLcB.s 			page 11


 592              		.thumb_func
 594              	vPortExitCritical:
 595              		@ args = 0, pretend = 0, frame = 8
 596              		@ frame_needed = 1, uses_anonymous_args = 0
 597              		@ link register save eliminated.
 598 0000 80B4     		push	{r7}
 599 0002 83B0     		sub	sp, sp, #12
 600 0004 00AF     		add	r7, sp, #0
 601 0006 124B     		ldr	r3, .L50
 602 0008 1B68     		ldr	r3, [r3]
 603 000a 002B     		cmp	r3, #0
 604 000c 0AD1     		bne	.L46
 605              		.syntax unified
 606              	@ 217 "FreeRTOS/portable/GCC/ARM_CM4F/portmacro.h" 1
 607 000e 4FF05003 		   mov r3, #80                                              
 608 0012 83F31188 	   msr basepri, r3                                         
 609 0016 BFF36F8F 	   isb                                                     
 610 001a BFF34F8F 	   dsb                                                     
 611              	
 612              	@ 0 "" 2
 613              		.thumb
 614              		.syntax unified
 615 001e 7B60     		str	r3, [r7, #4]
 616 0020 00BF     		nop
 617              	.L47:
 618 0022 FEE7     		b	.L47
 619              	.L46:
 620 0024 0A4B     		ldr	r3, .L50
 621 0026 1B68     		ldr	r3, [r3]
 622 0028 013B     		subs	r3, r3, #1
 623 002a 094A     		ldr	r2, .L50
 624 002c 1360     		str	r3, [r2]
 625 002e 084B     		ldr	r3, .L50
 626 0030 1B68     		ldr	r3, [r3]
 627 0032 002B     		cmp	r3, #0
 628 0034 05D1     		bne	.L49
 629 0036 0023     		movs	r3, #0
 630 0038 3B60     		str	r3, [r7]
 631 003a 3B68     		ldr	r3, [r7]
 632              		.syntax unified
 633              	@ 251 "FreeRTOS/portable/GCC/ARM_CM4F/portmacro.h" 1
 634 003c 83F31188 		   msr basepri, r3 
 635              	@ 0 "" 2
 636              		.thumb
 637              		.syntax unified
 638 0040 00BF     		nop
 639              	.L49:
 640 0042 00BF     		nop
 641 0044 0C37     		adds	r7, r7, #12
 642 0046 BD46     		mov	sp, r7
 643              		@ sp needed
 644 0048 5DF8047B 		ldr	r7, [sp], #4
 645 004c 7047     		bx	lr
 646              	.L51:
 647 004e 00BF     		.align	2
 648              	.L50:
 649 0050 00000000 		.word	uxCriticalNesting
ARM GAS  C:\Users\phamt\AppData\Local\Temp\cciArLcB.s 			page 12


 651              		.section	.text.PendSV_Handler,"ax",%progbits
 652              		.align	1
 653              		.global	PendSV_Handler
 654              		.syntax unified
 655              		.thumb
 656              		.thumb_func
 658              	PendSV_Handler:
 659              		@ Naked Function: prologue and epilogue provided by programmer.
 660              		@ args = 0, pretend = 0, frame = 0
 661              		@ frame_needed = 1, uses_anonymous_args = 0
 662              		.syntax unified
 663              	@ 508 "FreeRTOS/portable/GCC/ARM_CM4F/port.c" 1
 664 0000 EFF30980 		   mrs r0, psp                         
 665 0004 BFF36F8F 	   isb                                 
 666              	                                       
 667 0008 144B     	   ldr r3, =pxCurrentTCB               
 668 000a 1A68     	   ldr r2, [r3]                        
 669              	                                       
 670 000c 1EF0100F 	   tst r14, #0x10                      
 671 0010 08BF     	   it eq                               
 672 0012 20ED108A 	   vstmdbeq r0!, {s16-s31}             
 673              	                                       
 674 0016 20E9F04F 	   stmdb r0!, {r4-r11, r14}            
 675 001a 1060     	   str r0, [r2]                        
 676              	                                       
 677 001c 2DE90900 	   stmdb sp!, {r0, r3}                 
 678 0020 4FF05000 	   mov r0, #80                          
 679 0024 80F31188 	   msr basepri, r0                     
 680 0028 BFF34F8F 	   dsb                                 
 681 002c BFF36F8F 	   isb                                 
 682 0030 FFF7FEFF 	   bl vTaskSwitchContext               
 683 0034 4FF00000 	   mov r0, #0                          
 684 0038 80F31188 	   msr basepri, r0                     
 685 003c 09BC     	   ldmia sp!, {r0, r3}                 
 686              	                                       
 687 003e 1968     	   ldr r1, [r3]                        
 688 0040 0868     	   ldr r0, [r1]                        
 689              	                                       
 690 0042 B0E8F04F 	   ldmia r0!, {r4-r11, r14}            
 691              	                                       
 692 0046 1EF0100F 	   tst r14, #0x10                      
 693 004a 08BF     	   it eq                               
 694 004c B0EC108A 	   vldmiaeq r0!, {s16-s31}             
 695              	                                       
 696 0050 80F30988 	   msr psp, r0                         
 697 0054 BFF36F8F 	   isb                                 
 698              	                                       
 699              	                                       
 700 0058 7047     	   bx r14                              
 701              	                                       
 702 005a 00000000 	   .ltorg                              
 702      0000
 703              	
 704              	@ 0 "" 2
 705              		.thumb
 706              		.syntax unified
 707 0060 00BF     		nop
ARM GAS  C:\Users\phamt\AppData\Local\Temp\cciArLcB.s 			page 13


 709 0062 00BF     		.section	.text.SysTick_Handler,"ax",%progbits
 710              		.align	1
 711              		.global	SysTick_Handler
 712              		.syntax unified
 713              		.thumb
 714              		.thumb_func
 716              	SysTick_Handler:
 717              		@ args = 0, pretend = 0, frame = 8
 718              		@ frame_needed = 1, uses_anonymous_args = 0
 719 0000 80B5     		push	{r7, lr}
 720 0002 82B0     		sub	sp, sp, #8
 721 0004 00AF     		add	r7, sp, #0
 722              		.syntax unified
 723              	@ 217 "FreeRTOS/portable/GCC/ARM_CM4F/portmacro.h" 1
 724 0006 4FF05003 		   mov r3, #80                                              
 725 000a 83F31188 	   msr basepri, r3                                         
 726 000e BFF36F8F 	   isb                                                     
 727 0012 BFF34F8F 	   dsb                                                     
 728              	
 729              	@ 0 "" 2
 730              		.thumb
 731              		.syntax unified
 732 0016 7B60     		str	r3, [r7, #4]
 733 0018 00BF     		nop
 734 001a FFF7FEFF 		bl	xTaskIncrementTick
 735 001e 0346     		mov	r3, r0
 736 0020 002B     		cmp	r3, #0
 737 0022 03D0     		beq	.L54
 738 0024 064B     		ldr	r3, .L55
 739 0026 4FF08052 		mov	r2, #268435456
 740 002a 1A60     		str	r2, [r3]
 741              	.L54:
 742 002c 0023     		movs	r3, #0
 743 002e 3B60     		str	r3, [r7]
 744 0030 3B68     		ldr	r3, [r7]
 745              		.syntax unified
 746              	@ 251 "FreeRTOS/portable/GCC/ARM_CM4F/portmacro.h" 1
 747 0032 83F31188 		   msr basepri, r3 
 748              	@ 0 "" 2
 749              		.thumb
 750              		.syntax unified
 751 0036 00BF     		nop
 752 0038 00BF     		nop
 753 003a 0837     		adds	r7, r7, #8
 754 003c BD46     		mov	sp, r7
 755              		@ sp needed
 756 003e 80BD     		pop	{r7, pc}
 757              	.L56:
 758              		.align	2
 759              	.L55:
 760 0040 04ED00E0 		.word	-536810236
 762              		.section	.text.vPortSetupTimerInterrupt,"ax",%progbits
 763              		.align	1
 764              		.weak	vPortSetupTimerInterrupt
 765              		.syntax unified
 766              		.thumb
 767              		.thumb_func
ARM GAS  C:\Users\phamt\AppData\Local\Temp\cciArLcB.s 			page 14


 769              	vPortSetupTimerInterrupt:
 770              		@ args = 0, pretend = 0, frame = 0
 771              		@ frame_needed = 1, uses_anonymous_args = 0
 772              		@ link register save eliminated.
 773 0000 80B4     		push	{r7}
 774 0002 00AF     		add	r7, sp, #0
 775 0004 0B4B     		ldr	r3, .L58
 776 0006 0022     		movs	r2, #0
 777 0008 1A60     		str	r2, [r3]
 778 000a 0B4B     		ldr	r3, .L58+4
 779 000c 0022     		movs	r2, #0
 780 000e 1A60     		str	r2, [r3]
 781 0010 0A4B     		ldr	r3, .L58+8
 782 0012 1B68     		ldr	r3, [r3]
 783 0014 0A4A     		ldr	r2, .L58+12
 784 0016 A2FB0323 		umull	r2, r3, r2, r3
 785 001a 9B09     		lsrs	r3, r3, #6
 786 001c 094A     		ldr	r2, .L58+16
 787 001e 013B     		subs	r3, r3, #1
 788 0020 1360     		str	r3, [r2]
 789 0022 044B     		ldr	r3, .L58
 790 0024 0722     		movs	r2, #7
 791 0026 1A60     		str	r2, [r3]
 792 0028 00BF     		nop
 793 002a BD46     		mov	sp, r7
 794              		@ sp needed
 795 002c 5DF8047B 		ldr	r7, [sp], #4
 796 0030 7047     		bx	lr
 797              	.L59:
 798 0032 00BF     		.align	2
 799              	.L58:
 800 0034 10E000E0 		.word	-536813552
 801 0038 18E000E0 		.word	-536813544
 802 003c 00000000 		.word	SystemCoreClock
 803 0040 D34D6210 		.word	274877907
 804 0044 14E000E0 		.word	-536813548
 806              		.section	.text.vPortEnableVFP,"ax",%progbits
 807              		.align	1
 808              		.syntax unified
 809              		.thumb
 810              		.thumb_func
 812              	vPortEnableVFP:
 813              		@ Naked Function: prologue and epilogue provided by programmer.
 814              		@ args = 0, pretend = 0, frame = 0
 815              		@ frame_needed = 1, uses_anonymous_args = 0
 816              		.syntax unified
 817              	@ 836 "FreeRTOS/portable/GCC/ARM_CM4F/port.c" 1
 818 0000 DFF80C00 		   ldr.w r0, =0xE000ED88       
 819 0004 0168     	   ldr r1, [r0]                
 820              	                               
 821 0006 41F47001 	   orr r1, r1, #( 0xf << 20 )  
 822 000a 0160     	   str r1, [r0]                
 823 000c 7047     	   bx r14                      
 824 000e 000088ED 	   .ltorg                      
 824      00E0
 825              	
 826              	@ 0 "" 2
ARM GAS  C:\Users\phamt\AppData\Local\Temp\cciArLcB.s 			page 15


 827              		.thumb
 828              		.syntax unified
 829 0014 00BF     		nop
 831 0016 00BF     		.section	.text.vPortValidateInterruptPriority,"ax",%progbits
 832              		.align	1
 833              		.global	vPortValidateInterruptPriority
 834              		.syntax unified
 835              		.thumb
 836              		.thumb_func
 838              	vPortValidateInterruptPriority:
 839              		@ args = 0, pretend = 0, frame = 16
 840              		@ frame_needed = 1, uses_anonymous_args = 0
 841              		@ link register save eliminated.
 842 0000 80B4     		push	{r7}
 843 0002 85B0     		sub	sp, sp, #20
 844 0004 00AF     		add	r7, sp, #0
 845              		.syntax unified
 846              	@ 857 "FreeRTOS/portable/GCC/ARM_CM4F/port.c" 1
 847 0006 EFF30583 		mrs r3, ipsr
 848              	@ 0 "" 2
 849              		.thumb
 850              		.syntax unified
 851 000a FB60     		str	r3, [r7, #12]
 852 000c FB68     		ldr	r3, [r7, #12]
 853 000e 0F2B     		cmp	r3, #15
 854 0010 14D9     		bls	.L62
 855 0012 174A     		ldr	r2, .L67
 856 0014 FB68     		ldr	r3, [r7, #12]
 857 0016 1344     		add	r3, r3, r2
 858 0018 1B78     		ldrb	r3, [r3]
 859 001a FB72     		strb	r3, [r7, #11]
 860 001c 154B     		ldr	r3, .L67+4
 861 001e 1B78     		ldrb	r3, [r3]	@ zero_extendqisi2
 862 0020 FA7A     		ldrb	r2, [r7, #11]	@ zero_extendqisi2
 863 0022 9A42     		cmp	r2, r3
 864 0024 0AD2     		bcs	.L62
 865              		.syntax unified
 866              	@ 217 "FreeRTOS/portable/GCC/ARM_CM4F/portmacro.h" 1
 867 0026 4FF05003 		   mov r3, #80                                              
 868 002a 83F31188 	   msr basepri, r3                                         
 869 002e BFF36F8F 	   isb                                                     
 870 0032 BFF34F8F 	   dsb                                                     
 871              	
 872              	@ 0 "" 2
 873              		.thumb
 874              		.syntax unified
 875 0036 7B60     		str	r3, [r7, #4]
 876 0038 00BF     		nop
 877              	.L63:
 878 003a FEE7     		b	.L63
 879              	.L62:
 880 003c 0E4B     		ldr	r3, .L67+8
 881 003e 1B68     		ldr	r3, [r3]
 882 0040 03F4E062 		and	r2, r3, #1792
 883 0044 0D4B     		ldr	r3, .L67+12
 884 0046 1B68     		ldr	r3, [r3]
 885 0048 9A42     		cmp	r2, r3
ARM GAS  C:\Users\phamt\AppData\Local\Temp\cciArLcB.s 			page 16


 886 004a 0AD9     		bls	.L66
 887              		.syntax unified
 888              	@ 217 "FreeRTOS/portable/GCC/ARM_CM4F/portmacro.h" 1
 889 004c 4FF05003 		   mov r3, #80                                              
 890 0050 83F31188 	   msr basepri, r3                                         
 891 0054 BFF36F8F 	   isb                                                     
 892 0058 BFF34F8F 	   dsb                                                     
 893              	
 894              	@ 0 "" 2
 895              		.thumb
 896              		.syntax unified
 897 005c 3B60     		str	r3, [r7]
 898 005e 00BF     		nop
 899              	.L65:
 900 0060 FEE7     		b	.L65
 901              	.L66:
 902 0062 00BF     		nop
 903 0064 1437     		adds	r7, r7, #20
 904 0066 BD46     		mov	sp, r7
 905              		@ sp needed
 906 0068 5DF8047B 		ldr	r7, [sp], #4
 907 006c 7047     		bx	lr
 908              	.L68:
 909 006e 00BF     		.align	2
 910              	.L67:
 911 0070 F0E300E0 		.word	-536812560
 912 0074 00000000 		.word	ucMaxSysCallPriority
 913 0078 0CED00E0 		.word	-536810228
 914 007c 00000000 		.word	ulMaxPRIGROUPValue
 916              		.ident	"GCC: (GNU Arm Embedded Toolchain 10.3-2021.10) 10.3.1 20210824 (release)"
ARM GAS  C:\Users\phamt\AppData\Local\Temp\cciArLcB.s 			page 17

