ARM GAS  C:\Users\phamt\AppData\Local\Temp\ccSgAyL5.s 			page 1


   1              		.cpu cortex-m4
   2              		.arch armv7e-m
   3              		.fpu fpv4-sp-d16
   4              		.eabi_attribute 27, 1
   5              		.eabi_attribute 28, 1
   6              		.eabi_attribute 20, 1
   7              		.eabi_attribute 21, 1
   8              		.eabi_attribute 23, 3
   9              		.eabi_attribute 24, 1
  10              		.eabi_attribute 25, 1
  11              		.eabi_attribute 26, 1
  12              		.eabi_attribute 30, 6
  13              		.eabi_attribute 34, 1
  14              		.eabi_attribute 18, 4
  15              		.file	"stm32f4xx_hal_pwr.c"
  16              		.text
  17              		.section	.text.HAL_PWR_DeInit,"ax",%progbits
  18              		.align	1
  19              		.global	HAL_PWR_DeInit
  20              		.syntax unified
  21              		.thumb
  22              		.thumb_func
  24              	HAL_PWR_DeInit:
  25              		@ args = 0, pretend = 0, frame = 0
  26              		@ frame_needed = 1, uses_anonymous_args = 0
  27              		@ link register save eliminated.
  28 0000 80B4     		push	{r7}
  29 0002 00AF     		add	r7, sp, #0
  30 0004 084B     		ldr	r3, .L2
  31 0006 1B6A     		ldr	r3, [r3, #32]
  32 0008 074A     		ldr	r2, .L2
  33 000a 43F08053 		orr	r3, r3, #268435456
  34 000e 1362     		str	r3, [r2, #32]
  35 0010 054B     		ldr	r3, .L2
  36 0012 1B6A     		ldr	r3, [r3, #32]
  37 0014 044A     		ldr	r2, .L2
  38 0016 23F08053 		bic	r3, r3, #268435456
  39 001a 1362     		str	r3, [r2, #32]
  40 001c 00BF     		nop
  41 001e BD46     		mov	sp, r7
  42              		@ sp needed
  43 0020 5DF8047B 		ldr	r7, [sp], #4
  44 0024 7047     		bx	lr
  45              	.L3:
  46 0026 00BF     		.align	2
  47              	.L2:
  48 0028 00380240 		.word	1073887232
  50              		.section	.text.HAL_PWR_EnableBkUpAccess,"ax",%progbits
  51              		.align	1
  52              		.global	HAL_PWR_EnableBkUpAccess
  53              		.syntax unified
  54              		.thumb
  55              		.thumb_func
  57              	HAL_PWR_EnableBkUpAccess:
  58              		@ args = 0, pretend = 0, frame = 8
  59              		@ frame_needed = 1, uses_anonymous_args = 0
  60              		@ link register save eliminated.
ARM GAS  C:\Users\phamt\AppData\Local\Temp\ccSgAyL5.s 			page 2


  61 0000 80B4     		push	{r7}
  62 0002 83B0     		sub	sp, sp, #12
  63 0004 00AF     		add	r7, sp, #0
  64 0006 064B     		ldr	r3, .L5
  65 0008 0122     		movs	r2, #1
  66 000a 1A60     		str	r2, [r3]
  67 000c 054B     		ldr	r3, .L5+4
  68 000e 1B68     		ldr	r3, [r3]
  69 0010 7B60     		str	r3, [r7, #4]
  70 0012 7B68     		ldr	r3, [r7, #4]
  71 0014 00BF     		nop
  72 0016 0C37     		adds	r7, r7, #12
  73 0018 BD46     		mov	sp, r7
  74              		@ sp needed
  75 001a 5DF8047B 		ldr	r7, [sp], #4
  76 001e 7047     		bx	lr
  77              	.L6:
  78              		.align	2
  79              	.L5:
  80 0020 20000E42 		.word	1108213792
  81 0024 00700040 		.word	1073770496
  83              		.section	.text.HAL_PWR_DisableBkUpAccess,"ax",%progbits
  84              		.align	1
  85              		.global	HAL_PWR_DisableBkUpAccess
  86              		.syntax unified
  87              		.thumb
  88              		.thumb_func
  90              	HAL_PWR_DisableBkUpAccess:
  91              		@ args = 0, pretend = 0, frame = 8
  92              		@ frame_needed = 1, uses_anonymous_args = 0
  93              		@ link register save eliminated.
  94 0000 80B4     		push	{r7}
  95 0002 83B0     		sub	sp, sp, #12
  96 0004 00AF     		add	r7, sp, #0
  97 0006 064B     		ldr	r3, .L8
  98 0008 0022     		movs	r2, #0
  99 000a 1A60     		str	r2, [r3]
 100 000c 054B     		ldr	r3, .L8+4
 101 000e 1B68     		ldr	r3, [r3]
 102 0010 7B60     		str	r3, [r7, #4]
 103 0012 7B68     		ldr	r3, [r7, #4]
 104 0014 00BF     		nop
 105 0016 0C37     		adds	r7, r7, #12
 106 0018 BD46     		mov	sp, r7
 107              		@ sp needed
 108 001a 5DF8047B 		ldr	r7, [sp], #4
 109 001e 7047     		bx	lr
 110              	.L9:
 111              		.align	2
 112              	.L8:
 113 0020 20000E42 		.word	1108213792
 114 0024 00700040 		.word	1073770496
 116              		.section	.text.HAL_PWR_ConfigPVD,"ax",%progbits
 117              		.align	1
 118              		.global	HAL_PWR_ConfigPVD
 119              		.syntax unified
 120              		.thumb
ARM GAS  C:\Users\phamt\AppData\Local\Temp\ccSgAyL5.s 			page 3


 121              		.thumb_func
 123              	HAL_PWR_ConfigPVD:
 124              		@ args = 0, pretend = 0, frame = 8
 125              		@ frame_needed = 1, uses_anonymous_args = 0
 126              		@ link register save eliminated.
 127 0000 80B4     		push	{r7}
 128 0002 83B0     		sub	sp, sp, #12
 129 0004 00AF     		add	r7, sp, #0
 130 0006 7860     		str	r0, [r7, #4]
 131 0008 2B4B     		ldr	r3, .L16
 132 000a 1B68     		ldr	r3, [r3]
 133 000c 23F0E002 		bic	r2, r3, #224
 134 0010 7B68     		ldr	r3, [r7, #4]
 135 0012 1B68     		ldr	r3, [r3]
 136 0014 2849     		ldr	r1, .L16
 137 0016 1343     		orrs	r3, r3, r2
 138 0018 0B60     		str	r3, [r1]
 139 001a 284B     		ldr	r3, .L16+4
 140 001c 5B68     		ldr	r3, [r3, #4]
 141 001e 274A     		ldr	r2, .L16+4
 142 0020 23F48033 		bic	r3, r3, #65536
 143 0024 5360     		str	r3, [r2, #4]
 144 0026 254B     		ldr	r3, .L16+4
 145 0028 1B68     		ldr	r3, [r3]
 146 002a 244A     		ldr	r2, .L16+4
 147 002c 23F48033 		bic	r3, r3, #65536
 148 0030 1360     		str	r3, [r2]
 149 0032 224B     		ldr	r3, .L16+4
 150 0034 9B68     		ldr	r3, [r3, #8]
 151 0036 214A     		ldr	r2, .L16+4
 152 0038 23F48033 		bic	r3, r3, #65536
 153 003c 9360     		str	r3, [r2, #8]
 154 003e 1F4B     		ldr	r3, .L16+4
 155 0040 DB68     		ldr	r3, [r3, #12]
 156 0042 1E4A     		ldr	r2, .L16+4
 157 0044 23F48033 		bic	r3, r3, #65536
 158 0048 D360     		str	r3, [r2, #12]
 159 004a 7B68     		ldr	r3, [r7, #4]
 160 004c 5B68     		ldr	r3, [r3, #4]
 161 004e 03F48033 		and	r3, r3, #65536
 162 0052 002B     		cmp	r3, #0
 163 0054 05D0     		beq	.L11
 164 0056 194B     		ldr	r3, .L16+4
 165 0058 1B68     		ldr	r3, [r3]
 166 005a 184A     		ldr	r2, .L16+4
 167 005c 43F48033 		orr	r3, r3, #65536
 168 0060 1360     		str	r3, [r2]
 169              	.L11:
 170 0062 7B68     		ldr	r3, [r7, #4]
 171 0064 5B68     		ldr	r3, [r3, #4]
 172 0066 03F40033 		and	r3, r3, #131072
 173 006a 002B     		cmp	r3, #0
 174 006c 05D0     		beq	.L12
 175 006e 134B     		ldr	r3, .L16+4
 176 0070 5B68     		ldr	r3, [r3, #4]
 177 0072 124A     		ldr	r2, .L16+4
 178 0074 43F48033 		orr	r3, r3, #65536
ARM GAS  C:\Users\phamt\AppData\Local\Temp\ccSgAyL5.s 			page 4


 179 0078 5360     		str	r3, [r2, #4]
 180              	.L12:
 181 007a 7B68     		ldr	r3, [r7, #4]
 182 007c 5B68     		ldr	r3, [r3, #4]
 183 007e 03F00103 		and	r3, r3, #1
 184 0082 002B     		cmp	r3, #0
 185 0084 05D0     		beq	.L13
 186 0086 0D4B     		ldr	r3, .L16+4
 187 0088 9B68     		ldr	r3, [r3, #8]
 188 008a 0C4A     		ldr	r2, .L16+4
 189 008c 43F48033 		orr	r3, r3, #65536
 190 0090 9360     		str	r3, [r2, #8]
 191              	.L13:
 192 0092 7B68     		ldr	r3, [r7, #4]
 193 0094 5B68     		ldr	r3, [r3, #4]
 194 0096 03F00203 		and	r3, r3, #2
 195 009a 002B     		cmp	r3, #0
 196 009c 05D0     		beq	.L15
 197 009e 074B     		ldr	r3, .L16+4
 198 00a0 DB68     		ldr	r3, [r3, #12]
 199 00a2 064A     		ldr	r2, .L16+4
 200 00a4 43F48033 		orr	r3, r3, #65536
 201 00a8 D360     		str	r3, [r2, #12]
 202              	.L15:
 203 00aa 00BF     		nop
 204 00ac 0C37     		adds	r7, r7, #12
 205 00ae BD46     		mov	sp, r7
 206              		@ sp needed
 207 00b0 5DF8047B 		ldr	r7, [sp], #4
 208 00b4 7047     		bx	lr
 209              	.L17:
 210 00b6 00BF     		.align	2
 211              	.L16:
 212 00b8 00700040 		.word	1073770496
 213 00bc 003C0140 		.word	1073822720
 215              		.section	.text.HAL_PWR_EnablePVD,"ax",%progbits
 216              		.align	1
 217              		.global	HAL_PWR_EnablePVD
 218              		.syntax unified
 219              		.thumb
 220              		.thumb_func
 222              	HAL_PWR_EnablePVD:
 223              		@ args = 0, pretend = 0, frame = 0
 224              		@ frame_needed = 1, uses_anonymous_args = 0
 225              		@ link register save eliminated.
 226 0000 80B4     		push	{r7}
 227 0002 00AF     		add	r7, sp, #0
 228 0004 034B     		ldr	r3, .L19
 229 0006 0122     		movs	r2, #1
 230 0008 1A60     		str	r2, [r3]
 231 000a 00BF     		nop
 232 000c BD46     		mov	sp, r7
 233              		@ sp needed
 234 000e 5DF8047B 		ldr	r7, [sp], #4
 235 0012 7047     		bx	lr
 236              	.L20:
 237              		.align	2
ARM GAS  C:\Users\phamt\AppData\Local\Temp\ccSgAyL5.s 			page 5


 238              	.L19:
 239 0014 10000E42 		.word	1108213776
 241              		.section	.text.HAL_PWR_DisablePVD,"ax",%progbits
 242              		.align	1
 243              		.global	HAL_PWR_DisablePVD
 244              		.syntax unified
 245              		.thumb
 246              		.thumb_func
 248              	HAL_PWR_DisablePVD:
 249              		@ args = 0, pretend = 0, frame = 0
 250              		@ frame_needed = 1, uses_anonymous_args = 0
 251              		@ link register save eliminated.
 252 0000 80B4     		push	{r7}
 253 0002 00AF     		add	r7, sp, #0
 254 0004 034B     		ldr	r3, .L22
 255 0006 0022     		movs	r2, #0
 256 0008 1A60     		str	r2, [r3]
 257 000a 00BF     		nop
 258 000c BD46     		mov	sp, r7
 259              		@ sp needed
 260 000e 5DF8047B 		ldr	r7, [sp], #4
 261 0012 7047     		bx	lr
 262              	.L23:
 263              		.align	2
 264              	.L22:
 265 0014 10000E42 		.word	1108213776
 267              		.section	.text.HAL_PWR_EnableWakeUpPin,"ax",%progbits
 268              		.align	1
 269              		.global	HAL_PWR_EnableWakeUpPin
 270              		.syntax unified
 271              		.thumb
 272              		.thumb_func
 274              	HAL_PWR_EnableWakeUpPin:
 275              		@ args = 0, pretend = 0, frame = 8
 276              		@ frame_needed = 1, uses_anonymous_args = 0
 277              		@ link register save eliminated.
 278 0000 80B4     		push	{r7}
 279 0002 83B0     		sub	sp, sp, #12
 280 0004 00AF     		add	r7, sp, #0
 281 0006 7860     		str	r0, [r7, #4]
 282 0008 054B     		ldr	r3, .L25
 283 000a 5A68     		ldr	r2, [r3, #4]
 284 000c 0449     		ldr	r1, .L25
 285 000e 7B68     		ldr	r3, [r7, #4]
 286 0010 1343     		orrs	r3, r3, r2
 287 0012 4B60     		str	r3, [r1, #4]
 288 0014 00BF     		nop
 289 0016 0C37     		adds	r7, r7, #12
 290 0018 BD46     		mov	sp, r7
 291              		@ sp needed
 292 001a 5DF8047B 		ldr	r7, [sp], #4
 293 001e 7047     		bx	lr
 294              	.L26:
 295              		.align	2
 296              	.L25:
 297 0020 00700040 		.word	1073770496
 299              		.section	.text.HAL_PWR_DisableWakeUpPin,"ax",%progbits
ARM GAS  C:\Users\phamt\AppData\Local\Temp\ccSgAyL5.s 			page 6


 300              		.align	1
 301              		.global	HAL_PWR_DisableWakeUpPin
 302              		.syntax unified
 303              		.thumb
 304              		.thumb_func
 306              	HAL_PWR_DisableWakeUpPin:
 307              		@ args = 0, pretend = 0, frame = 8
 308              		@ frame_needed = 1, uses_anonymous_args = 0
 309              		@ link register save eliminated.
 310 0000 80B4     		push	{r7}
 311 0002 83B0     		sub	sp, sp, #12
 312 0004 00AF     		add	r7, sp, #0
 313 0006 7860     		str	r0, [r7, #4]
 314 0008 064B     		ldr	r3, .L28
 315 000a 5A68     		ldr	r2, [r3, #4]
 316 000c 7B68     		ldr	r3, [r7, #4]
 317 000e DB43     		mvns	r3, r3
 318 0010 0449     		ldr	r1, .L28
 319 0012 1340     		ands	r3, r3, r2
 320 0014 4B60     		str	r3, [r1, #4]
 321 0016 00BF     		nop
 322 0018 0C37     		adds	r7, r7, #12
 323 001a BD46     		mov	sp, r7
 324              		@ sp needed
 325 001c 5DF8047B 		ldr	r7, [sp], #4
 326 0020 7047     		bx	lr
 327              	.L29:
 328 0022 00BF     		.align	2
 329              	.L28:
 330 0024 00700040 		.word	1073770496
 332              		.section	.text.HAL_PWR_EnterSLEEPMode,"ax",%progbits
 333              		.align	1
 334              		.global	HAL_PWR_EnterSLEEPMode
 335              		.syntax unified
 336              		.thumb
 337              		.thumb_func
 339              	HAL_PWR_EnterSLEEPMode:
 340              		@ args = 0, pretend = 0, frame = 8
 341              		@ frame_needed = 1, uses_anonymous_args = 0
 342              		@ link register save eliminated.
 343 0000 80B4     		push	{r7}
 344 0002 83B0     		sub	sp, sp, #12
 345 0004 00AF     		add	r7, sp, #0
 346 0006 7860     		str	r0, [r7, #4]
 347 0008 0B46     		mov	r3, r1
 348 000a FB70     		strb	r3, [r7, #3]
 349 000c 0B4B     		ldr	r3, .L35
 350 000e 1B69     		ldr	r3, [r3, #16]
 351 0010 0A4A     		ldr	r2, .L35
 352 0012 23F00403 		bic	r3, r3, #4
 353 0016 1361     		str	r3, [r2, #16]
 354 0018 FB78     		ldrb	r3, [r7, #3]	@ zero_extendqisi2
 355 001a 012B     		cmp	r3, #1
 356 001c 01D1     		bne	.L31
 357              		.syntax unified
 358              	@ 407 "Drivers/STM32F4xx_HAL_Driver/Src/stm32f4xx_hal_pwr.c" 1
 359 001e 30BF     		wfi
ARM GAS  C:\Users\phamt\AppData\Local\Temp\ccSgAyL5.s 			page 7


 360              	@ 0 "" 2
 361              		.thumb
 362              		.syntax unified
 363 0020 05E0     		b	.L34
 364              	.L31:
 365 0022 FB78     		ldrb	r3, [r7, #3]	@ zero_extendqisi2
 366 0024 032B     		cmp	r3, #3
 367 0026 01D0     		beq	.L33
 368              		.syntax unified
 369              	@ 414 "Drivers/STM32F4xx_HAL_Driver/Src/stm32f4xx_hal_pwr.c" 1
 370 0028 40BF     		sev
 371              	@ 0 "" 2
 372              	@ 415 "Drivers/STM32F4xx_HAL_Driver/Src/stm32f4xx_hal_pwr.c" 1
 373 002a 20BF     		wfe
 374              	@ 0 "" 2
 375              		.thumb
 376              		.syntax unified
 377              	.L33:
 378              		.syntax unified
 379              	@ 419 "Drivers/STM32F4xx_HAL_Driver/Src/stm32f4xx_hal_pwr.c" 1
 380 002c 20BF     		wfe
 381              	@ 0 "" 2
 382              		.thumb
 383              		.syntax unified
 384              	.L34:
 385 002e 00BF     		nop
 386 0030 0C37     		adds	r7, r7, #12
 387 0032 BD46     		mov	sp, r7
 388              		@ sp needed
 389 0034 5DF8047B 		ldr	r7, [sp], #4
 390 0038 7047     		bx	lr
 391              	.L36:
 392 003a 00BF     		.align	2
 393              	.L35:
 394 003c 00ED00E0 		.word	-536810240
 396              		.section	.text.HAL_PWR_EnterSTOPMode,"ax",%progbits
 397              		.align	1
 398              		.global	HAL_PWR_EnterSTOPMode
 399              		.syntax unified
 400              		.thumb
 401              		.thumb_func
 403              	HAL_PWR_EnterSTOPMode:
 404              		@ args = 0, pretend = 0, frame = 8
 405              		@ frame_needed = 1, uses_anonymous_args = 0
 406              		@ link register save eliminated.
 407 0000 80B4     		push	{r7}
 408 0002 83B0     		sub	sp, sp, #12
 409 0004 00AF     		add	r7, sp, #0
 410 0006 7860     		str	r0, [r7, #4]
 411 0008 0B46     		mov	r3, r1
 412 000a FB70     		strb	r3, [r7, #3]
 413 000c 124B     		ldr	r3, .L41
 414 000e 1B68     		ldr	r3, [r3]
 415 0010 23F00302 		bic	r2, r3, #3
 416 0014 1049     		ldr	r1, .L41
 417 0016 7B68     		ldr	r3, [r7, #4]
 418 0018 1343     		orrs	r3, r3, r2
ARM GAS  C:\Users\phamt\AppData\Local\Temp\ccSgAyL5.s 			page 8


 419 001a 0B60     		str	r3, [r1]
 420 001c 0F4B     		ldr	r3, .L41+4
 421 001e 1B69     		ldr	r3, [r3, #16]
 422 0020 0E4A     		ldr	r2, .L41+4
 423 0022 43F00403 		orr	r3, r3, #4
 424 0026 1361     		str	r3, [r2, #16]
 425 0028 FB78     		ldrb	r3, [r7, #3]	@ zero_extendqisi2
 426 002a 012B     		cmp	r3, #1
 427 002c 01D1     		bne	.L38
 428              		.syntax unified
 429              	@ 461 "Drivers/STM32F4xx_HAL_Driver/Src/stm32f4xx_hal_pwr.c" 1
 430 002e 30BF     		wfi
 431              	@ 0 "" 2
 432              		.thumb
 433              		.syntax unified
 434 0030 05E0     		b	.L39
 435              	.L38:
 436 0032 FB78     		ldrb	r3, [r7, #3]	@ zero_extendqisi2
 437 0034 032B     		cmp	r3, #3
 438 0036 01D0     		beq	.L40
 439              		.syntax unified
 440              	@ 468 "Drivers/STM32F4xx_HAL_Driver/Src/stm32f4xx_hal_pwr.c" 1
 441 0038 40BF     		sev
 442              	@ 0 "" 2
 443              	@ 469 "Drivers/STM32F4xx_HAL_Driver/Src/stm32f4xx_hal_pwr.c" 1
 444 003a 20BF     		wfe
 445              	@ 0 "" 2
 446              		.thumb
 447              		.syntax unified
 448              	.L40:
 449              		.syntax unified
 450              	@ 472 "Drivers/STM32F4xx_HAL_Driver/Src/stm32f4xx_hal_pwr.c" 1
 451 003c 20BF     		wfe
 452              	@ 0 "" 2
 453              		.thumb
 454              		.syntax unified
 455              	.L39:
 456 003e 074B     		ldr	r3, .L41+4
 457 0040 1B69     		ldr	r3, [r3, #16]
 458 0042 064A     		ldr	r2, .L41+4
 459 0044 23F00403 		bic	r3, r3, #4
 460 0048 1361     		str	r3, [r2, #16]
 461 004a 00BF     		nop
 462 004c 0C37     		adds	r7, r7, #12
 463 004e BD46     		mov	sp, r7
 464              		@ sp needed
 465 0050 5DF8047B 		ldr	r7, [sp], #4
 466 0054 7047     		bx	lr
 467              	.L42:
 468 0056 00BF     		.align	2
 469              	.L41:
 470 0058 00700040 		.word	1073770496
 471 005c 00ED00E0 		.word	-536810240
 473              		.section	.text.HAL_PWR_EnterSTANDBYMode,"ax",%progbits
 474              		.align	1
 475              		.global	HAL_PWR_EnterSTANDBYMode
 476              		.syntax unified
ARM GAS  C:\Users\phamt\AppData\Local\Temp\ccSgAyL5.s 			page 9


 477              		.thumb
 478              		.thumb_func
 480              	HAL_PWR_EnterSTANDBYMode:
 481              		@ args = 0, pretend = 0, frame = 0
 482              		@ frame_needed = 1, uses_anonymous_args = 0
 483              		@ link register save eliminated.
 484 0000 80B4     		push	{r7}
 485 0002 00AF     		add	r7, sp, #0
 486 0004 084B     		ldr	r3, .L44
 487 0006 1B68     		ldr	r3, [r3]
 488 0008 074A     		ldr	r2, .L44
 489 000a 43F00203 		orr	r3, r3, #2
 490 000e 1360     		str	r3, [r2]
 491 0010 064B     		ldr	r3, .L44+4
 492 0012 1B69     		ldr	r3, [r3, #16]
 493 0014 054A     		ldr	r2, .L44+4
 494 0016 43F00403 		orr	r3, r3, #4
 495 001a 1361     		str	r3, [r2, #16]
 496              		.syntax unified
 497              	@ 501 "Drivers/STM32F4xx_HAL_Driver/Src/stm32f4xx_hal_pwr.c" 1
 498 001c 30BF     		wfi
 499              	@ 0 "" 2
 500              		.thumb
 501              		.syntax unified
 502 001e 00BF     		nop
 503 0020 BD46     		mov	sp, r7
 504              		@ sp needed
 505 0022 5DF8047B 		ldr	r7, [sp], #4
 506 0026 7047     		bx	lr
 507              	.L45:
 508              		.align	2
 509              	.L44:
 510 0028 00700040 		.word	1073770496
 511 002c 00ED00E0 		.word	-536810240
 513              		.section	.text.HAL_PWR_PVD_IRQHandler,"ax",%progbits
 514              		.align	1
 515              		.global	HAL_PWR_PVD_IRQHandler
 516              		.syntax unified
 517              		.thumb
 518              		.thumb_func
 520              	HAL_PWR_PVD_IRQHandler:
 521              		@ args = 0, pretend = 0, frame = 0
 522              		@ frame_needed = 1, uses_anonymous_args = 0
 523 0000 80B5     		push	{r7, lr}
 524 0002 00AF     		add	r7, sp, #0
 525 0004 064B     		ldr	r3, .L49
 526 0006 5B69     		ldr	r3, [r3, #20]
 527 0008 03F48033 		and	r3, r3, #65536
 528 000c 002B     		cmp	r3, #0
 529 000e 05D0     		beq	.L48
 530 0010 FFF7FEFF 		bl	HAL_PWR_PVDCallback
 531 0014 024B     		ldr	r3, .L49
 532 0016 4FF48032 		mov	r2, #65536
 533 001a 5A61     		str	r2, [r3, #20]
 534              	.L48:
 535 001c 00BF     		nop
 536 001e 80BD     		pop	{r7, pc}
ARM GAS  C:\Users\phamt\AppData\Local\Temp\ccSgAyL5.s 			page 10


 537              	.L50:
 538              		.align	2
 539              	.L49:
 540 0020 003C0140 		.word	1073822720
 542              		.section	.text.HAL_PWR_PVDCallback,"ax",%progbits
 543              		.align	1
 544              		.weak	HAL_PWR_PVDCallback
 545              		.syntax unified
 546              		.thumb
 547              		.thumb_func
 549              	HAL_PWR_PVDCallback:
 550              		@ args = 0, pretend = 0, frame = 0
 551              		@ frame_needed = 1, uses_anonymous_args = 0
 552              		@ link register save eliminated.
 553 0000 80B4     		push	{r7}
 554 0002 00AF     		add	r7, sp, #0
 555 0004 00BF     		nop
 556 0006 BD46     		mov	sp, r7
 557              		@ sp needed
 558 0008 5DF8047B 		ldr	r7, [sp], #4
 559 000c 7047     		bx	lr
 561              		.section	.text.HAL_PWR_EnableSleepOnExit,"ax",%progbits
 562              		.align	1
 563              		.global	HAL_PWR_EnableSleepOnExit
 564              		.syntax unified
 565              		.thumb
 566              		.thumb_func
 568              	HAL_PWR_EnableSleepOnExit:
 569              		@ args = 0, pretend = 0, frame = 0
 570              		@ frame_needed = 1, uses_anonymous_args = 0
 571              		@ link register save eliminated.
 572 0000 80B4     		push	{r7}
 573 0002 00AF     		add	r7, sp, #0
 574 0004 054B     		ldr	r3, .L53
 575 0006 1B69     		ldr	r3, [r3, #16]
 576 0008 044A     		ldr	r2, .L53
 577 000a 43F00203 		orr	r3, r3, #2
 578 000e 1361     		str	r3, [r2, #16]
 579 0010 00BF     		nop
 580 0012 BD46     		mov	sp, r7
 581              		@ sp needed
 582 0014 5DF8047B 		ldr	r7, [sp], #4
 583 0018 7047     		bx	lr
 584              	.L54:
 585 001a 00BF     		.align	2
 586              	.L53:
 587 001c 00ED00E0 		.word	-536810240
 589              		.section	.text.HAL_PWR_DisableSleepOnExit,"ax",%progbits
 590              		.align	1
 591              		.global	HAL_PWR_DisableSleepOnExit
 592              		.syntax unified
 593              		.thumb
 594              		.thumb_func
 596              	HAL_PWR_DisableSleepOnExit:
 597              		@ args = 0, pretend = 0, frame = 0
 598              		@ frame_needed = 1, uses_anonymous_args = 0
 599              		@ link register save eliminated.
ARM GAS  C:\Users\phamt\AppData\Local\Temp\ccSgAyL5.s 			page 11


 600 0000 80B4     		push	{r7}
 601 0002 00AF     		add	r7, sp, #0
 602 0004 054B     		ldr	r3, .L56
 603 0006 1B69     		ldr	r3, [r3, #16]
 604 0008 044A     		ldr	r2, .L56
 605 000a 23F00203 		bic	r3, r3, #2
 606 000e 1361     		str	r3, [r2, #16]
 607 0010 00BF     		nop
 608 0012 BD46     		mov	sp, r7
 609              		@ sp needed
 610 0014 5DF8047B 		ldr	r7, [sp], #4
 611 0018 7047     		bx	lr
 612              	.L57:
 613 001a 00BF     		.align	2
 614              	.L56:
 615 001c 00ED00E0 		.word	-536810240
 617              		.section	.text.HAL_PWR_EnableSEVOnPend,"ax",%progbits
 618              		.align	1
 619              		.global	HAL_PWR_EnableSEVOnPend
 620              		.syntax unified
 621              		.thumb
 622              		.thumb_func
 624              	HAL_PWR_EnableSEVOnPend:
 625              		@ args = 0, pretend = 0, frame = 0
 626              		@ frame_needed = 1, uses_anonymous_args = 0
 627              		@ link register save eliminated.
 628 0000 80B4     		push	{r7}
 629 0002 00AF     		add	r7, sp, #0
 630 0004 054B     		ldr	r3, .L59
 631 0006 1B69     		ldr	r3, [r3, #16]
 632 0008 044A     		ldr	r2, .L59
 633 000a 43F01003 		orr	r3, r3, #16
 634 000e 1361     		str	r3, [r2, #16]
 635 0010 00BF     		nop
 636 0012 BD46     		mov	sp, r7
 637              		@ sp needed
 638 0014 5DF8047B 		ldr	r7, [sp], #4
 639 0018 7047     		bx	lr
 640              	.L60:
 641 001a 00BF     		.align	2
 642              	.L59:
 643 001c 00ED00E0 		.word	-536810240
 645              		.section	.text.HAL_PWR_DisableSEVOnPend,"ax",%progbits
 646              		.align	1
 647              		.global	HAL_PWR_DisableSEVOnPend
 648              		.syntax unified
 649              		.thumb
 650              		.thumb_func
 652              	HAL_PWR_DisableSEVOnPend:
 653              		@ args = 0, pretend = 0, frame = 0
 654              		@ frame_needed = 1, uses_anonymous_args = 0
 655              		@ link register save eliminated.
 656 0000 80B4     		push	{r7}
 657 0002 00AF     		add	r7, sp, #0
 658 0004 054B     		ldr	r3, .L62
 659 0006 1B69     		ldr	r3, [r3, #16]
 660 0008 044A     		ldr	r2, .L62
ARM GAS  C:\Users\phamt\AppData\Local\Temp\ccSgAyL5.s 			page 12


 661 000a 23F01003 		bic	r3, r3, #16
 662 000e 1361     		str	r3, [r2, #16]
 663 0010 00BF     		nop
 664 0012 BD46     		mov	sp, r7
 665              		@ sp needed
 666 0014 5DF8047B 		ldr	r7, [sp], #4
 667 0018 7047     		bx	lr
 668              	.L63:
 669 001a 00BF     		.align	2
 670              	.L62:
 671 001c 00ED00E0 		.word	-536810240
 673              		.ident	"GCC: (GNU Arm Embedded Toolchain 10.3-2021.10) 10.3.1 20210824 (release)"
ARM GAS  C:\Users\phamt\AppData\Local\Temp\ccSgAyL5.s 			page 13

