ARM GAS  C:\Users\phamt\AppData\Local\Temp\cc1rjBXX.s 			page 1


   1              		.cpu cortex-m4
   2              		.arch armv7e-m
   3              		.fpu fpv4-sp-d16
   4              		.eabi_attribute 27, 1
   5              		.eabi_attribute 28, 1
   6              		.eabi_attribute 20, 1
   7              		.eabi_attribute 21, 1
   8              		.eabi_attribute 23, 3
   9              		.eabi_attribute 24, 1
  10              		.eabi_attribute 25, 1
  11              		.eabi_attribute 26, 1
  12              		.eabi_attribute 30, 6
  13              		.eabi_attribute 34, 1
  14              		.eabi_attribute 18, 4
  15              		.file	"stm32f4xx_hal_rcc_ex.c"
  16              		.text
  17              		.section	.text.HAL_RCCEx_PeriphCLKConfig,"ax",%progbits
  18              		.align	1
  19              		.global	HAL_RCCEx_PeriphCLKConfig
  20              		.syntax unified
  21              		.thumb
  22              		.thumb_func
  24              	HAL_RCCEx_PeriphCLKConfig:
  25              		@ args = 0, pretend = 0, frame = 24
  26              		@ frame_needed = 1, uses_anonymous_args = 0
  27 0000 80B5     		push	{r7, lr}
  28 0002 86B0     		sub	sp, sp, #24
  29 0004 00AF     		add	r7, sp, #0
  30 0006 7860     		str	r0, [r7, #4]
  31 0008 0023     		movs	r3, #0
  32 000a 7B61     		str	r3, [r7, #20]
  33 000c 0023     		movs	r3, #0
  34 000e 3B61     		str	r3, [r7, #16]
  35 0010 7B68     		ldr	r3, [r7, #4]
  36 0012 1B68     		ldr	r3, [r3]
  37 0014 03F00103 		and	r3, r3, #1
  38 0018 002B     		cmp	r3, #0
  39 001a 05D1     		bne	.L2
  40 001c 7B68     		ldr	r3, [r7, #4]
  41 001e 1B68     		ldr	r3, [r3]
  42 0020 03F00403 		and	r3, r3, #4
  43 0024 002B     		cmp	r3, #0
  44 0026 35D0     		beq	.L3
  45              	.L2:
  46 0028 624B     		ldr	r3, .L17
  47 002a 0022     		movs	r2, #0
  48 002c 1A60     		str	r2, [r3]
  49 002e FFF7FEFF 		bl	HAL_GetTick
  50 0032 7861     		str	r0, [r7, #20]
  51 0034 08E0     		b	.L4
  52              	.L6:
  53 0036 FFF7FEFF 		bl	HAL_GetTick
  54 003a 0246     		mov	r2, r0
  55 003c 7B69     		ldr	r3, [r7, #20]
  56 003e D31A     		subs	r3, r2, r3
  57 0040 022B     		cmp	r3, #2
  58 0042 01D9     		bls	.L4
ARM GAS  C:\Users\phamt\AppData\Local\Temp\cc1rjBXX.s 			page 2


  59 0044 0323     		movs	r3, #3
  60 0046 B0E0     		b	.L5
  61              	.L4:
  62 0048 5B4B     		ldr	r3, .L17+4
  63 004a 1B68     		ldr	r3, [r3]
  64 004c 03F00063 		and	r3, r3, #134217728
  65 0050 002B     		cmp	r3, #0
  66 0052 F0D1     		bne	.L6
  67 0054 7B68     		ldr	r3, [r7, #4]
  68 0056 5B68     		ldr	r3, [r3, #4]
  69 0058 9A01     		lsls	r2, r3, #6
  70 005a 7B68     		ldr	r3, [r7, #4]
  71 005c 9B68     		ldr	r3, [r3, #8]
  72 005e 1B07     		lsls	r3, r3, #28
  73 0060 5549     		ldr	r1, .L17+4
  74 0062 1343     		orrs	r3, r3, r2
  75 0064 C1F88430 		str	r3, [r1, #132]
  76 0068 524B     		ldr	r3, .L17
  77 006a 0122     		movs	r2, #1
  78 006c 1A60     		str	r2, [r3]
  79 006e FFF7FEFF 		bl	HAL_GetTick
  80 0072 7861     		str	r0, [r7, #20]
  81 0074 08E0     		b	.L7
  82              	.L8:
  83 0076 FFF7FEFF 		bl	HAL_GetTick
  84 007a 0246     		mov	r2, r0
  85 007c 7B69     		ldr	r3, [r7, #20]
  86 007e D31A     		subs	r3, r2, r3
  87 0080 022B     		cmp	r3, #2
  88 0082 01D9     		bls	.L7
  89 0084 0323     		movs	r3, #3
  90 0086 90E0     		b	.L5
  91              	.L7:
  92 0088 4B4B     		ldr	r3, .L17+4
  93 008a 1B68     		ldr	r3, [r3]
  94 008c 03F00063 		and	r3, r3, #134217728
  95 0090 002B     		cmp	r3, #0
  96 0092 F0D0     		beq	.L8
  97              	.L3:
  98 0094 7B68     		ldr	r3, [r7, #4]
  99 0096 1B68     		ldr	r3, [r3]
 100 0098 03F00203 		and	r3, r3, #2
 101 009c 002B     		cmp	r3, #0
 102 009e 00F08380 		beq	.L9
 103 00a2 0023     		movs	r3, #0
 104 00a4 FB60     		str	r3, [r7, #12]
 105 00a6 444B     		ldr	r3, .L17+4
 106 00a8 1B6C     		ldr	r3, [r3, #64]
 107 00aa 434A     		ldr	r2, .L17+4
 108 00ac 43F08053 		orr	r3, r3, #268435456
 109 00b0 1364     		str	r3, [r2, #64]
 110 00b2 414B     		ldr	r3, .L17+4
 111 00b4 1B6C     		ldr	r3, [r3, #64]
 112 00b6 03F08053 		and	r3, r3, #268435456
 113 00ba FB60     		str	r3, [r7, #12]
 114 00bc FB68     		ldr	r3, [r7, #12]
 115 00be 3F4B     		ldr	r3, .L17+8
ARM GAS  C:\Users\phamt\AppData\Local\Temp\cc1rjBXX.s 			page 3


 116 00c0 1B68     		ldr	r3, [r3]
 117 00c2 3E4A     		ldr	r2, .L17+8
 118 00c4 43F48073 		orr	r3, r3, #256
 119 00c8 1360     		str	r3, [r2]
 120 00ca FFF7FEFF 		bl	HAL_GetTick
 121 00ce 7861     		str	r0, [r7, #20]
 122 00d0 08E0     		b	.L10
 123              	.L11:
 124 00d2 FFF7FEFF 		bl	HAL_GetTick
 125 00d6 0246     		mov	r2, r0
 126 00d8 7B69     		ldr	r3, [r7, #20]
 127 00da D31A     		subs	r3, r2, r3
 128 00dc 022B     		cmp	r3, #2
 129 00de 01D9     		bls	.L10
 130 00e0 0323     		movs	r3, #3
 131 00e2 62E0     		b	.L5
 132              	.L10:
 133 00e4 354B     		ldr	r3, .L17+8
 134 00e6 1B68     		ldr	r3, [r3]
 135 00e8 03F48073 		and	r3, r3, #256
 136 00ec 002B     		cmp	r3, #0
 137 00ee F0D0     		beq	.L11
 138 00f0 314B     		ldr	r3, .L17+4
 139 00f2 1B6F     		ldr	r3, [r3, #112]
 140 00f4 03F44073 		and	r3, r3, #768
 141 00f8 3B61     		str	r3, [r7, #16]
 142 00fa 3B69     		ldr	r3, [r7, #16]
 143 00fc 002B     		cmp	r3, #0
 144 00fe 2FD0     		beq	.L12
 145 0100 7B68     		ldr	r3, [r7, #4]
 146 0102 DB68     		ldr	r3, [r3, #12]
 147 0104 03F44073 		and	r3, r3, #768
 148 0108 3A69     		ldr	r2, [r7, #16]
 149 010a 9A42     		cmp	r2, r3
 150 010c 28D0     		beq	.L12
 151 010e 2A4B     		ldr	r3, .L17+4
 152 0110 1B6F     		ldr	r3, [r3, #112]
 153 0112 23F44073 		bic	r3, r3, #768
 154 0116 3B61     		str	r3, [r7, #16]
 155 0118 294B     		ldr	r3, .L17+12
 156 011a 0122     		movs	r2, #1
 157 011c 1A60     		str	r2, [r3]
 158 011e 284B     		ldr	r3, .L17+12
 159 0120 0022     		movs	r2, #0
 160 0122 1A60     		str	r2, [r3]
 161 0124 244A     		ldr	r2, .L17+4
 162 0126 3B69     		ldr	r3, [r7, #16]
 163 0128 1367     		str	r3, [r2, #112]
 164 012a 234B     		ldr	r3, .L17+4
 165 012c 1B6F     		ldr	r3, [r3, #112]
 166 012e 03F00103 		and	r3, r3, #1
 167 0132 012B     		cmp	r3, #1
 168 0134 14D1     		bne	.L12
 169 0136 FFF7FEFF 		bl	HAL_GetTick
 170 013a 7861     		str	r0, [r7, #20]
 171 013c 0AE0     		b	.L13
 172              	.L14:
ARM GAS  C:\Users\phamt\AppData\Local\Temp\cc1rjBXX.s 			page 4


 173 013e FFF7FEFF 		bl	HAL_GetTick
 174 0142 0246     		mov	r2, r0
 175 0144 7B69     		ldr	r3, [r7, #20]
 176 0146 D31A     		subs	r3, r2, r3
 177 0148 41F28832 		movw	r2, #5000
 178 014c 9342     		cmp	r3, r2
 179 014e 01D9     		bls	.L13
 180 0150 0323     		movs	r3, #3
 181 0152 2AE0     		b	.L5
 182              	.L13:
 183 0154 184B     		ldr	r3, .L17+4
 184 0156 1B6F     		ldr	r3, [r3, #112]
 185 0158 03F00203 		and	r3, r3, #2
 186 015c 002B     		cmp	r3, #0
 187 015e EED0     		beq	.L14
 188              	.L12:
 189 0160 7B68     		ldr	r3, [r7, #4]
 190 0162 DB68     		ldr	r3, [r3, #12]
 191 0164 03F44073 		and	r3, r3, #768
 192 0168 B3F5407F 		cmp	r3, #768
 193 016c 0DD1     		bne	.L15
 194 016e 124B     		ldr	r3, .L17+4
 195 0170 9B68     		ldr	r3, [r3, #8]
 196 0172 23F4F812 		bic	r2, r3, #2031616
 197 0176 7B68     		ldr	r3, [r7, #4]
 198 0178 DB68     		ldr	r3, [r3, #12]
 199 017a 23F07043 		bic	r3, r3, #-268435456
 200 017e 23F44073 		bic	r3, r3, #768
 201 0182 0D49     		ldr	r1, .L17+4
 202 0184 1343     		orrs	r3, r3, r2
 203 0186 8B60     		str	r3, [r1, #8]
 204 0188 05E0     		b	.L16
 205              	.L15:
 206 018a 0B4B     		ldr	r3, .L17+4
 207 018c 9B68     		ldr	r3, [r3, #8]
 208 018e 0A4A     		ldr	r2, .L17+4
 209 0190 23F4F813 		bic	r3, r3, #2031616
 210 0194 9360     		str	r3, [r2, #8]
 211              	.L16:
 212 0196 084B     		ldr	r3, .L17+4
 213 0198 1A6F     		ldr	r2, [r3, #112]
 214 019a 7B68     		ldr	r3, [r7, #4]
 215 019c DB68     		ldr	r3, [r3, #12]
 216 019e C3F30B03 		ubfx	r3, r3, #0, #12
 217 01a2 0549     		ldr	r1, .L17+4
 218 01a4 1343     		orrs	r3, r3, r2
 219 01a6 0B67     		str	r3, [r1, #112]
 220              	.L9:
 221 01a8 0023     		movs	r3, #0
 222              	.L5:
 223 01aa 1846     		mov	r0, r3
 224 01ac 1837     		adds	r7, r7, #24
 225 01ae BD46     		mov	sp, r7
 226              		@ sp needed
 227 01b0 80BD     		pop	{r7, pc}
 228              	.L18:
 229 01b2 00BF     		.align	2
ARM GAS  C:\Users\phamt\AppData\Local\Temp\cc1rjBXX.s 			page 5


 230              	.L17:
 231 01b4 68004742 		.word	1111949416
 232 01b8 00380240 		.word	1073887232
 233 01bc 00700040 		.word	1073770496
 234 01c0 400E4742 		.word	1111952960
 236              		.section	.text.HAL_RCCEx_GetPeriphCLKConfig,"ax",%progbits
 237              		.align	1
 238              		.global	HAL_RCCEx_GetPeriphCLKConfig
 239              		.syntax unified
 240              		.thumb
 241              		.thumb_func
 243              	HAL_RCCEx_GetPeriphCLKConfig:
 244              		@ args = 0, pretend = 0, frame = 16
 245              		@ frame_needed = 1, uses_anonymous_args = 0
 246              		@ link register save eliminated.
 247 0000 80B4     		push	{r7}
 248 0002 85B0     		sub	sp, sp, #20
 249 0004 00AF     		add	r7, sp, #0
 250 0006 7860     		str	r0, [r7, #4]
 251 0008 7B68     		ldr	r3, [r7, #4]
 252 000a 0322     		movs	r2, #3
 253 000c 1A60     		str	r2, [r3]
 254 000e 114B     		ldr	r3, .L20
 255 0010 D3F88430 		ldr	r3, [r3, #132]
 256 0014 9B09     		lsrs	r3, r3, #6
 257 0016 C3F30802 		ubfx	r2, r3, #0, #9
 258 001a 7B68     		ldr	r3, [r7, #4]
 259 001c 5A60     		str	r2, [r3, #4]
 260 001e 0D4B     		ldr	r3, .L20
 261 0020 D3F88430 		ldr	r3, [r3, #132]
 262 0024 1B0F     		lsrs	r3, r3, #28
 263 0026 03F00702 		and	r2, r3, #7
 264 002a 7B68     		ldr	r3, [r7, #4]
 265 002c 9A60     		str	r2, [r3, #8]
 266 002e 094B     		ldr	r3, .L20
 267 0030 9B68     		ldr	r3, [r3, #8]
 268 0032 03F4F813 		and	r3, r3, #2031616
 269 0036 FB60     		str	r3, [r7, #12]
 270 0038 064B     		ldr	r3, .L20
 271 003a 1B6F     		ldr	r3, [r3, #112]
 272 003c 03F44072 		and	r2, r3, #768
 273 0040 FB68     		ldr	r3, [r7, #12]
 274 0042 1A43     		orrs	r2, r2, r3
 275 0044 7B68     		ldr	r3, [r7, #4]
 276 0046 DA60     		str	r2, [r3, #12]
 277 0048 00BF     		nop
 278 004a 1437     		adds	r7, r7, #20
 279 004c BD46     		mov	sp, r7
 280              		@ sp needed
 281 004e 5DF8047B 		ldr	r7, [sp], #4
 282 0052 7047     		bx	lr
 283              	.L21:
 284              		.align	2
 285              	.L20:
 286 0054 00380240 		.word	1073887232
 288              		.section	.text.HAL_RCCEx_GetPeriphCLKFreq,"ax",%progbits
 289              		.align	1
ARM GAS  C:\Users\phamt\AppData\Local\Temp\cc1rjBXX.s 			page 6


 290              		.global	HAL_RCCEx_GetPeriphCLKFreq
 291              		.syntax unified
 292              		.thumb
 293              		.thumb_func
 295              	HAL_RCCEx_GetPeriphCLKFreq:
 296              		@ args = 0, pretend = 0, frame = 24
 297              		@ frame_needed = 1, uses_anonymous_args = 0
 298              		@ link register save eliminated.
 299 0000 80B4     		push	{r7}
 300 0002 87B0     		sub	sp, sp, #28
 301 0004 00AF     		add	r7, sp, #0
 302 0006 7860     		str	r0, [r7, #4]
 303 0008 0023     		movs	r3, #0
 304 000a 7B61     		str	r3, [r7, #20]
 305 000c 0023     		movs	r3, #0
 306 000e 3B61     		str	r3, [r7, #16]
 307 0010 0023     		movs	r3, #0
 308 0012 FB60     		str	r3, [r7, #12]
 309 0014 0023     		movs	r3, #0
 310 0016 BB60     		str	r3, [r7, #8]
 311 0018 7B68     		ldr	r3, [r7, #4]
 312 001a 012B     		cmp	r3, #1
 313 001c 3FD1     		bne	.L31
 314 001e 244B     		ldr	r3, .L32
 315 0020 9B68     		ldr	r3, [r3, #8]
 316 0022 03F40003 		and	r3, r3, #8388608
 317 0026 FB60     		str	r3, [r7, #12]
 318 0028 FB68     		ldr	r3, [r7, #12]
 319 002a 002B     		cmp	r3, #0
 320 002c 06D0     		beq	.L24
 321 002e FB68     		ldr	r3, [r7, #12]
 322 0030 B3F5000F 		cmp	r3, #8388608
 323 0034 2FD1     		bne	.L25
 324 0036 1F4B     		ldr	r3, .L32+4
 325 0038 7B61     		str	r3, [r7, #20]
 326 003a 2FE0     		b	.L26
 327              	.L24:
 328 003c 1C4B     		ldr	r3, .L32
 329 003e 5B68     		ldr	r3, [r3, #4]
 330 0040 03F48003 		and	r3, r3, #4194304
 331 0044 B3F5800F 		cmp	r3, #4194304
 332 0048 08D1     		bne	.L27
 333 004a 194B     		ldr	r3, .L32
 334 004c 5B68     		ldr	r3, [r3, #4]
 335 004e 03F03F03 		and	r3, r3, #63
 336 0052 194A     		ldr	r2, .L32+8
 337 0054 B2FBF3F3 		udiv	r3, r2, r3
 338 0058 3B61     		str	r3, [r7, #16]
 339 005a 07E0     		b	.L28
 340              	.L27:
 341 005c 144B     		ldr	r3, .L32
 342 005e 5B68     		ldr	r3, [r3, #4]
 343 0060 03F03F03 		and	r3, r3, #63
 344 0064 154A     		ldr	r2, .L32+12
 345 0066 B2FBF3F3 		udiv	r3, r2, r3
 346 006a 3B61     		str	r3, [r7, #16]
 347              	.L28:
ARM GAS  C:\Users\phamt\AppData\Local\Temp\cc1rjBXX.s 			page 7


 348 006c 104B     		ldr	r3, .L32
 349 006e D3F88430 		ldr	r3, [r3, #132]
 350 0072 9B09     		lsrs	r3, r3, #6
 351 0074 C3F30802 		ubfx	r2, r3, #0, #9
 352 0078 3B69     		ldr	r3, [r7, #16]
 353 007a 02FB03F3 		mul	r3, r2, r3
 354 007e BB60     		str	r3, [r7, #8]
 355 0080 0B4B     		ldr	r3, .L32
 356 0082 D3F88430 		ldr	r3, [r3, #132]
 357 0086 1B0F     		lsrs	r3, r3, #28
 358 0088 03F00703 		and	r3, r3, #7
 359 008c BA68     		ldr	r2, [r7, #8]
 360 008e B2FBF3F3 		udiv	r3, r2, r3
 361 0092 7B61     		str	r3, [r7, #20]
 362 0094 02E0     		b	.L26
 363              	.L25:
 364 0096 0023     		movs	r3, #0
 365 0098 7B61     		str	r3, [r7, #20]
 366 009a 00BF     		nop
 367              	.L26:
 368 009c 00E0     		b	.L29
 369              	.L31:
 370 009e 00BF     		nop
 371              	.L29:
 372 00a0 7B69     		ldr	r3, [r7, #20]
 373 00a2 1846     		mov	r0, r3
 374 00a4 1C37     		adds	r7, r7, #28
 375 00a6 BD46     		mov	sp, r7
 376              		@ sp needed
 377 00a8 5DF8047B 		ldr	r7, [sp], #4
 378 00ac 7047     		bx	lr
 379              	.L33:
 380 00ae 00BF     		.align	2
 381              	.L32:
 382 00b0 00380240 		.word	1073887232
 383 00b4 0080BB00 		.word	12288000
 384 00b8 00127A00 		.word	8000000
 385 00bc 0024F400 		.word	16000000
 387              		.section	.text.HAL_RCCEx_EnablePLLI2S,"ax",%progbits
 388              		.align	1
 389              		.global	HAL_RCCEx_EnablePLLI2S
 390              		.syntax unified
 391              		.thumb
 392              		.thumb_func
 394              	HAL_RCCEx_EnablePLLI2S:
 395              		@ args = 0, pretend = 0, frame = 16
 396              		@ frame_needed = 1, uses_anonymous_args = 0
 397 0000 80B5     		push	{r7, lr}
 398 0002 84B0     		sub	sp, sp, #16
 399 0004 00AF     		add	r7, sp, #0
 400 0006 7860     		str	r0, [r7, #4]
 401 0008 1D4B     		ldr	r3, .L40
 402 000a 0022     		movs	r2, #0
 403 000c 1A60     		str	r2, [r3]
 404 000e FFF7FEFF 		bl	HAL_GetTick
 405 0012 F860     		str	r0, [r7, #12]
 406 0014 08E0     		b	.L35
ARM GAS  C:\Users\phamt\AppData\Local\Temp\cc1rjBXX.s 			page 8


 407              	.L37:
 408 0016 FFF7FEFF 		bl	HAL_GetTick
 409 001a 0246     		mov	r2, r0
 410 001c FB68     		ldr	r3, [r7, #12]
 411 001e D31A     		subs	r3, r2, r3
 412 0020 022B     		cmp	r3, #2
 413 0022 01D9     		bls	.L35
 414 0024 0323     		movs	r3, #3
 415 0026 26E0     		b	.L36
 416              	.L35:
 417 0028 164B     		ldr	r3, .L40+4
 418 002a 1B68     		ldr	r3, [r3]
 419 002c 03F00063 		and	r3, r3, #134217728
 420 0030 002B     		cmp	r3, #0
 421 0032 F0D1     		bne	.L37
 422 0034 7B68     		ldr	r3, [r7, #4]
 423 0036 1B68     		ldr	r3, [r3]
 424 0038 9A01     		lsls	r2, r3, #6
 425 003a 7B68     		ldr	r3, [r7, #4]
 426 003c 5B68     		ldr	r3, [r3, #4]
 427 003e 1B07     		lsls	r3, r3, #28
 428 0040 1049     		ldr	r1, .L40+4
 429 0042 1343     		orrs	r3, r3, r2
 430 0044 C1F88430 		str	r3, [r1, #132]
 431 0048 0D4B     		ldr	r3, .L40
 432 004a 0122     		movs	r2, #1
 433 004c 1A60     		str	r2, [r3]
 434 004e FFF7FEFF 		bl	HAL_GetTick
 435 0052 F860     		str	r0, [r7, #12]
 436 0054 08E0     		b	.L38
 437              	.L39:
 438 0056 FFF7FEFF 		bl	HAL_GetTick
 439 005a 0246     		mov	r2, r0
 440 005c FB68     		ldr	r3, [r7, #12]
 441 005e D31A     		subs	r3, r2, r3
 442 0060 022B     		cmp	r3, #2
 443 0062 01D9     		bls	.L38
 444 0064 0323     		movs	r3, #3
 445 0066 06E0     		b	.L36
 446              	.L38:
 447 0068 064B     		ldr	r3, .L40+4
 448 006a 1B68     		ldr	r3, [r3]
 449 006c 03F00063 		and	r3, r3, #134217728
 450 0070 002B     		cmp	r3, #0
 451 0072 F0D0     		beq	.L39
 452 0074 0023     		movs	r3, #0
 453              	.L36:
 454 0076 1846     		mov	r0, r3
 455 0078 1037     		adds	r7, r7, #16
 456 007a BD46     		mov	sp, r7
 457              		@ sp needed
 458 007c 80BD     		pop	{r7, pc}
 459              	.L41:
 460 007e 00BF     		.align	2
 461              	.L40:
 462 0080 68004742 		.word	1111949416
 463 0084 00380240 		.word	1073887232
ARM GAS  C:\Users\phamt\AppData\Local\Temp\cc1rjBXX.s 			page 9


 465              		.section	.text.HAL_RCCEx_DisablePLLI2S,"ax",%progbits
 466              		.align	1
 467              		.global	HAL_RCCEx_DisablePLLI2S
 468              		.syntax unified
 469              		.thumb
 470              		.thumb_func
 472              	HAL_RCCEx_DisablePLLI2S:
 473              		@ args = 0, pretend = 0, frame = 8
 474              		@ frame_needed = 1, uses_anonymous_args = 0
 475 0000 80B5     		push	{r7, lr}
 476 0002 82B0     		sub	sp, sp, #8
 477 0004 00AF     		add	r7, sp, #0
 478 0006 0D4B     		ldr	r3, .L46
 479 0008 0022     		movs	r2, #0
 480 000a 1A60     		str	r2, [r3]
 481 000c FFF7FEFF 		bl	HAL_GetTick
 482 0010 7860     		str	r0, [r7, #4]
 483 0012 08E0     		b	.L43
 484              	.L45:
 485 0014 FFF7FEFF 		bl	HAL_GetTick
 486 0018 0246     		mov	r2, r0
 487 001a 7B68     		ldr	r3, [r7, #4]
 488 001c D31A     		subs	r3, r2, r3
 489 001e 022B     		cmp	r3, #2
 490 0020 01D9     		bls	.L43
 491 0022 0323     		movs	r3, #3
 492 0024 06E0     		b	.L44
 493              	.L43:
 494 0026 064B     		ldr	r3, .L46+4
 495 0028 1B68     		ldr	r3, [r3]
 496 002a 03F00063 		and	r3, r3, #134217728
 497 002e 002B     		cmp	r3, #0
 498 0030 F0D1     		bne	.L45
 499 0032 0023     		movs	r3, #0
 500              	.L44:
 501 0034 1846     		mov	r0, r3
 502 0036 0837     		adds	r7, r7, #8
 503 0038 BD46     		mov	sp, r7
 504              		@ sp needed
 505 003a 80BD     		pop	{r7, pc}
 506              	.L47:
 507              		.align	2
 508              	.L46:
 509 003c 68004742 		.word	1111949416
 510 0040 00380240 		.word	1073887232
 512              		.section	.text.HAL_RCC_DeInit,"ax",%progbits
 513              		.align	1
 514              		.global	HAL_RCC_DeInit
 515              		.syntax unified
 516              		.thumb
 517              		.thumb_func
 519              	HAL_RCC_DeInit:
 520              		@ args = 0, pretend = 0, frame = 8
 521              		@ frame_needed = 1, uses_anonymous_args = 0
 522 0000 80B5     		push	{r7, lr}
 523 0002 82B0     		sub	sp, sp, #8
 524 0004 00AF     		add	r7, sp, #0
ARM GAS  C:\Users\phamt\AppData\Local\Temp\cc1rjBXX.s 			page 10


 525 0006 FFF7FEFF 		bl	HAL_GetTick
 526 000a 7860     		str	r0, [r7, #4]
 527 000c 5D4B     		ldr	r3, .L61
 528 000e 1B68     		ldr	r3, [r3]
 529 0010 5C4A     		ldr	r2, .L61
 530 0012 43F00103 		orr	r3, r3, #1
 531 0016 1360     		str	r3, [r2]
 532 0018 08E0     		b	.L49
 533              	.L51:
 534 001a FFF7FEFF 		bl	HAL_GetTick
 535 001e 0246     		mov	r2, r0
 536 0020 7B68     		ldr	r3, [r7, #4]
 537 0022 D31A     		subs	r3, r2, r3
 538 0024 022B     		cmp	r3, #2
 539 0026 01D9     		bls	.L49
 540 0028 0323     		movs	r3, #3
 541 002a A7E0     		b	.L50
 542              	.L49:
 543 002c 554B     		ldr	r3, .L61
 544 002e 1B68     		ldr	r3, [r3]
 545 0030 03F00203 		and	r3, r3, #2
 546 0034 002B     		cmp	r3, #0
 547 0036 F0D0     		beq	.L51
 548 0038 524B     		ldr	r3, .L61
 549 003a 1B68     		ldr	r3, [r3]
 550 003c 514A     		ldr	r2, .L61
 551 003e 43F08003 		orr	r3, r3, #128
 552 0042 1360     		str	r3, [r2]
 553 0044 FFF7FEFF 		bl	HAL_GetTick
 554 0048 7860     		str	r0, [r7, #4]
 555 004a 4E4B     		ldr	r3, .L61
 556 004c 0022     		movs	r2, #0
 557 004e 9A60     		str	r2, [r3, #8]
 558 0050 0AE0     		b	.L52
 559              	.L53:
 560 0052 FFF7FEFF 		bl	HAL_GetTick
 561 0056 0246     		mov	r2, r0
 562 0058 7B68     		ldr	r3, [r7, #4]
 563 005a D31A     		subs	r3, r2, r3
 564 005c 41F28832 		movw	r2, #5000
 565 0060 9342     		cmp	r3, r2
 566 0062 01D9     		bls	.L52
 567 0064 0323     		movs	r3, #3
 568 0066 89E0     		b	.L50
 569              	.L52:
 570 0068 464B     		ldr	r3, .L61
 571 006a 9B68     		ldr	r3, [r3, #8]
 572 006c 03F00C03 		and	r3, r3, #12
 573 0070 002B     		cmp	r3, #0
 574 0072 EED1     		bne	.L53
 575 0074 FFF7FEFF 		bl	HAL_GetTick
 576 0078 7860     		str	r0, [r7, #4]
 577 007a 424B     		ldr	r3, .L61
 578 007c 1B68     		ldr	r3, [r3]
 579 007e 414A     		ldr	r2, .L61
 580 0080 23F45023 		bic	r3, r3, #851968
 581 0084 1360     		str	r3, [r2]
ARM GAS  C:\Users\phamt\AppData\Local\Temp\cc1rjBXX.s 			page 11


 582 0086 08E0     		b	.L54
 583              	.L55:
 584 0088 FFF7FEFF 		bl	HAL_GetTick
 585 008c 0246     		mov	r2, r0
 586 008e 7B68     		ldr	r3, [r7, #4]
 587 0090 D31A     		subs	r3, r2, r3
 588 0092 642B     		cmp	r3, #100
 589 0094 01D9     		bls	.L54
 590 0096 0323     		movs	r3, #3
 591 0098 70E0     		b	.L50
 592              	.L54:
 593 009a 3A4B     		ldr	r3, .L61
 594 009c 1B68     		ldr	r3, [r3]
 595 009e 03F40033 		and	r3, r3, #131072
 596 00a2 002B     		cmp	r3, #0
 597 00a4 F0D1     		bne	.L55
 598 00a6 FFF7FEFF 		bl	HAL_GetTick
 599 00aa 7860     		str	r0, [r7, #4]
 600 00ac 354B     		ldr	r3, .L61
 601 00ae 1B68     		ldr	r3, [r3]
 602 00b0 344A     		ldr	r2, .L61
 603 00b2 23F08073 		bic	r3, r3, #16777216
 604 00b6 1360     		str	r3, [r2]
 605 00b8 08E0     		b	.L56
 606              	.L57:
 607 00ba FFF7FEFF 		bl	HAL_GetTick
 608 00be 0246     		mov	r2, r0
 609 00c0 7B68     		ldr	r3, [r7, #4]
 610 00c2 D31A     		subs	r3, r2, r3
 611 00c4 022B     		cmp	r3, #2
 612 00c6 01D9     		bls	.L56
 613 00c8 0323     		movs	r3, #3
 614 00ca 57E0     		b	.L50
 615              	.L56:
 616 00cc 2D4B     		ldr	r3, .L61
 617 00ce 1B68     		ldr	r3, [r3]
 618 00d0 03F00073 		and	r3, r3, #33554432
 619 00d4 002B     		cmp	r3, #0
 620 00d6 F0D1     		bne	.L57
 621 00d8 FFF7FEFF 		bl	HAL_GetTick
 622 00dc 7860     		str	r0, [r7, #4]
 623 00de 294B     		ldr	r3, .L61
 624 00e0 1B68     		ldr	r3, [r3]
 625 00e2 284A     		ldr	r2, .L61
 626 00e4 23F08063 		bic	r3, r3, #67108864
 627 00e8 1360     		str	r3, [r2]
 628 00ea 08E0     		b	.L58
 629              	.L59:
 630 00ec FFF7FEFF 		bl	HAL_GetTick
 631 00f0 0246     		mov	r2, r0
 632 00f2 7B68     		ldr	r3, [r7, #4]
 633 00f4 D31A     		subs	r3, r2, r3
 634 00f6 022B     		cmp	r3, #2
 635 00f8 01D9     		bls	.L58
 636 00fa 0323     		movs	r3, #3
 637 00fc 3EE0     		b	.L50
 638              	.L58:
ARM GAS  C:\Users\phamt\AppData\Local\Temp\cc1rjBXX.s 			page 12


 639 00fe 214B     		ldr	r3, .L61
 640 0100 1B68     		ldr	r3, [r3]
 641 0102 03F00063 		and	r3, r3, #134217728
 642 0106 002B     		cmp	r3, #0
 643 0108 F0D1     		bne	.L59
 644 010a 1E4B     		ldr	r3, .L61
 645 010c 1E4A     		ldr	r2, .L61+4
 646 010e 5A60     		str	r2, [r3, #4]
 647 0110 1C4B     		ldr	r3, .L61
 648 0112 1E4A     		ldr	r2, .L61+8
 649 0114 C3F88420 		str	r2, [r3, #132]
 650 0118 1A4B     		ldr	r3, .L61
 651 011a DB68     		ldr	r3, [r3, #12]
 652 011c 194A     		ldr	r2, .L61
 653 011e 23F4F853 		bic	r3, r3, #7936
 654 0122 D360     		str	r3, [r2, #12]
 655 0124 174B     		ldr	r3, .L61
 656 0126 DB68     		ldr	r3, [r3, #12]
 657 0128 164A     		ldr	r2, .L61
 658 012a 23F40053 		bic	r3, r3, #8192
 659 012e D360     		str	r3, [r2, #12]
 660 0130 144B     		ldr	r3, .L61
 661 0132 DB68     		ldr	r3, [r3, #12]
 662 0134 134A     		ldr	r2, .L61
 663 0136 43F41F03 		orr	r3, r3, #10420224
 664 013a D360     		str	r3, [r2, #12]
 665 013c 114B     		ldr	r3, .L61
 666 013e DB68     		ldr	r3, [r3, #12]
 667 0140 104A     		ldr	r2, .L61
 668 0142 43F40013 		orr	r3, r3, #2097152
 669 0146 D360     		str	r3, [r2, #12]
 670 0148 0E4B     		ldr	r3, .L61
 671 014a 5B6F     		ldr	r3, [r3, #116]
 672 014c 0D4A     		ldr	r2, .L61
 673 014e 23F00103 		bic	r3, r3, #1
 674 0152 5367     		str	r3, [r2, #116]
 675 0154 0B4B     		ldr	r3, .L61
 676 0156 5B6F     		ldr	r3, [r3, #116]
 677 0158 0A4A     		ldr	r2, .L61
 678 015a 43F08073 		orr	r3, r3, #16777216
 679 015e 5367     		str	r3, [r2, #116]
 680 0160 0B4B     		ldr	r3, .L61+12
 681 0162 0C4A     		ldr	r2, .L61+16
 682 0164 1A60     		str	r2, [r3]
 683 0166 0C4B     		ldr	r3, .L61+20
 684 0168 1B68     		ldr	r3, [r3]
 685 016a 1846     		mov	r0, r3
 686 016c FFF7FEFF 		bl	HAL_InitTick
 687 0170 0346     		mov	r3, r0
 688 0172 002B     		cmp	r3, #0
 689 0174 01D0     		beq	.L60
 690 0176 0123     		movs	r3, #1
 691 0178 00E0     		b	.L50
 692              	.L60:
 693 017a 0023     		movs	r3, #0
 694              	.L50:
 695 017c 1846     		mov	r0, r3
ARM GAS  C:\Users\phamt\AppData\Local\Temp\cc1rjBXX.s 			page 13


 696 017e 0837     		adds	r7, r7, #8
 697 0180 BD46     		mov	sp, r7
 698              		@ sp needed
 699 0182 80BD     		pop	{r7, pc}
 700              	.L62:
 701              		.align	2
 702              	.L61:
 703 0184 00380240 		.word	1073887232
 704 0188 10300004 		.word	67121168
 705 018c 00300020 		.word	536883200
 706 0190 00000000 		.word	SystemCoreClock
 707 0194 0024F400 		.word	16000000
 708 0198 00000000 		.word	uwTickPrio
 710              		.ident	"GCC: (GNU Arm Embedded Toolchain 10.3-2021.10) 10.3.1 20210824 (release)"
ARM GAS  C:\Users\phamt\AppData\Local\Temp\cc1rjBXX.s 			page 14

