ARM GAS  C:\Users\phamt\AppData\Local\Temp\cchpB5XI.s 			page 1


   1              		.cpu cortex-m4
   2              		.arch armv7e-m
   3              		.fpu fpv4-sp-d16
   4              		.eabi_attribute 27, 1
   5              		.eabi_attribute 28, 1
   6              		.eabi_attribute 20, 1
   7              		.eabi_attribute 21, 1
   8              		.eabi_attribute 23, 3
   9              		.eabi_attribute 24, 1
  10              		.eabi_attribute 25, 1
  11              		.eabi_attribute 26, 1
  12              		.eabi_attribute 30, 6
  13              		.eabi_attribute 34, 1
  14              		.eabi_attribute 18, 4
  15              		.file	"stm32f4xx_it.c"
  16              		.text
  17              		.section	.text.NMI_Handler,"ax",%progbits
  18              		.align	1
  19              		.global	NMI_Handler
  20              		.syntax unified
  21              		.thumb
  22              		.thumb_func
  24              	NMI_Handler:
  25              		@ args = 0, pretend = 0, frame = 0
  26              		@ frame_needed = 1, uses_anonymous_args = 0
  27              		@ link register save eliminated.
  28 0000 80B4     		push	{r7}
  29 0002 00AF     		add	r7, sp, #0
  30              	.L2:
  31 0004 FEE7     		b	.L2
  33              		.section	.text.HardFault_Handler,"ax",%progbits
  34              		.align	1
  35              		.global	HardFault_Handler
  36              		.syntax unified
  37              		.thumb
  38              		.thumb_func
  40              	HardFault_Handler:
  41              		@ args = 0, pretend = 0, frame = 0
  42              		@ frame_needed = 1, uses_anonymous_args = 0
  43              		@ link register save eliminated.
  44 0000 80B4     		push	{r7}
  45 0002 00AF     		add	r7, sp, #0
  46              	.L4:
  47 0004 FEE7     		b	.L4
  49              		.section	.text.MemManage_Handler,"ax",%progbits
  50              		.align	1
  51              		.global	MemManage_Handler
  52              		.syntax unified
  53              		.thumb
  54              		.thumb_func
  56              	MemManage_Handler:
  57              		@ args = 0, pretend = 0, frame = 0
  58              		@ frame_needed = 1, uses_anonymous_args = 0
  59              		@ link register save eliminated.
  60 0000 80B4     		push	{r7}
  61 0002 00AF     		add	r7, sp, #0
  62              	.L6:
ARM GAS  C:\Users\phamt\AppData\Local\Temp\cchpB5XI.s 			page 2


  63 0004 FEE7     		b	.L6
  65              		.section	.text.BusFault_Handler,"ax",%progbits
  66              		.align	1
  67              		.global	BusFault_Handler
  68              		.syntax unified
  69              		.thumb
  70              		.thumb_func
  72              	BusFault_Handler:
  73              		@ args = 0, pretend = 0, frame = 0
  74              		@ frame_needed = 1, uses_anonymous_args = 0
  75              		@ link register save eliminated.
  76 0000 80B4     		push	{r7}
  77 0002 00AF     		add	r7, sp, #0
  78              	.L8:
  79 0004 FEE7     		b	.L8
  81              		.section	.text.UsageFault_Handler,"ax",%progbits
  82              		.align	1
  83              		.global	UsageFault_Handler
  84              		.syntax unified
  85              		.thumb
  86              		.thumb_func
  88              	UsageFault_Handler:
  89              		@ args = 0, pretend = 0, frame = 0
  90              		@ frame_needed = 1, uses_anonymous_args = 0
  91              		@ link register save eliminated.
  92 0000 80B4     		push	{r7}
  93 0002 00AF     		add	r7, sp, #0
  94              	.L10:
  95 0004 FEE7     		b	.L10
  97              		.section	.text.SVC_Handler,"ax",%progbits
  98              		.align	1
  99              		.global	SVC_Handler
 100              		.syntax unified
 101              		.thumb
 102              		.thumb_func
 104              	SVC_Handler:
 105              		@ args = 0, pretend = 0, frame = 0
 106              		@ frame_needed = 1, uses_anonymous_args = 0
 107              		@ link register save eliminated.
 108 0000 80B4     		push	{r7}
 109 0002 00AF     		add	r7, sp, #0
 110 0004 00BF     		nop
 111 0006 BD46     		mov	sp, r7
 112              		@ sp needed
 113 0008 5DF8047B 		ldr	r7, [sp], #4
 114 000c 7047     		bx	lr
 116              		.section	.text.DebugMon_Handler,"ax",%progbits
 117              		.align	1
 118              		.global	DebugMon_Handler
 119              		.syntax unified
 120              		.thumb
 121              		.thumb_func
 123              	DebugMon_Handler:
 124              		@ args = 0, pretend = 0, frame = 0
 125              		@ frame_needed = 1, uses_anonymous_args = 0
 126              		@ link register save eliminated.
 127 0000 80B4     		push	{r7}
ARM GAS  C:\Users\phamt\AppData\Local\Temp\cchpB5XI.s 			page 3


 128 0002 00AF     		add	r7, sp, #0
 129 0004 00BF     		nop
 130 0006 BD46     		mov	sp, r7
 131              		@ sp needed
 132 0008 5DF8047B 		ldr	r7, [sp], #4
 133 000c 7047     		bx	lr
 135              		.section	.text.PendSV_Handler,"ax",%progbits
 136              		.align	1
 137              		.global	PendSV_Handler
 138              		.syntax unified
 139              		.thumb
 140              		.thumb_func
 142              	PendSV_Handler:
 143              		@ args = 0, pretend = 0, frame = 0
 144              		@ frame_needed = 1, uses_anonymous_args = 0
 145              		@ link register save eliminated.
 146 0000 80B4     		push	{r7}
 147 0002 00AF     		add	r7, sp, #0
 148 0004 00BF     		nop
 149 0006 BD46     		mov	sp, r7
 150              		@ sp needed
 151 0008 5DF8047B 		ldr	r7, [sp], #4
 152 000c 7047     		bx	lr
 154              		.section	.text.SysTick_Handler,"ax",%progbits
 155              		.align	1
 156              		.global	SysTick_Handler
 157              		.syntax unified
 158              		.thumb
 159              		.thumb_func
 161              	SysTick_Handler:
 162              		@ args = 0, pretend = 0, frame = 0
 163              		@ frame_needed = 1, uses_anonymous_args = 0
 164 0000 80B5     		push	{r7, lr}
 165 0002 00AF     		add	r7, sp, #0
 166 0004 FFF7FEFF 		bl	Inc_Tick
 167 0008 00BF     		nop
 168 000a 80BD     		pop	{r7, pc}
 170              		.ident	"GCC: (GNU Arm Embedded Toolchain 10.3-2021.10) 10.3.1 20210824 (release)"
ARM GAS  C:\Users\phamt\AppData\Local\Temp\cchpB5XI.s 			page 4

