ARM GAS  C:\Users\phamt\AppData\Local\Temp\ccgYGYX4.s 			page 1


   1              		.cpu cortex-m4
   2              		.arch armv7e-m
   3              		.fpu fpv4-sp-d16
   4              		.eabi_attribute 27, 1
   5              		.eabi_attribute 28, 1
   6              		.eabi_attribute 20, 1
   7              		.eabi_attribute 21, 1
   8              		.eabi_attribute 23, 3
   9              		.eabi_attribute 24, 1
  10              		.eabi_attribute 25, 1
  11              		.eabi_attribute 26, 1
  12              		.eabi_attribute 30, 6
  13              		.eabi_attribute 34, 1
  14              		.eabi_attribute 18, 4
  15              		.file	"tasks.c"
  16              		.text
  17              		.global	pxCurrentTCB
  18              		.section	.bss.pxCurrentTCB,"aw",%nobits
  19              		.align	2
  22              	pxCurrentTCB:
  23 0000 00000000 		.space	4
  24              		.section	.bss.pxReadyTasksLists,"aw",%nobits
  25              		.align	2
  28              	pxReadyTasksLists:
  29 0000 00000000 		.space	1120
  29      00000000 
  29      00000000 
  29      00000000 
  29      00000000 
  30              		.section	.bss.xDelayedTaskList1,"aw",%nobits
  31              		.align	2
  34              	xDelayedTaskList1:
  35 0000 00000000 		.space	20
  35      00000000 
  35      00000000 
  35      00000000 
  35      00000000 
  36              		.section	.bss.xDelayedTaskList2,"aw",%nobits
  37              		.align	2
  40              	xDelayedTaskList2:
  41 0000 00000000 		.space	20
  41      00000000 
  41      00000000 
  41      00000000 
  41      00000000 
  42              		.section	.bss.pxDelayedTaskList,"aw",%nobits
  43              		.align	2
  46              	pxDelayedTaskList:
  47 0000 00000000 		.space	4
  48              		.section	.bss.pxOverflowDelayedTaskList,"aw",%nobits
  49              		.align	2
  52              	pxOverflowDelayedTaskList:
  53 0000 00000000 		.space	4
  54              		.section	.bss.xPendingReadyList,"aw",%nobits
  55              		.align	2
  58              	xPendingReadyList:
  59 0000 00000000 		.space	20
ARM GAS  C:\Users\phamt\AppData\Local\Temp\ccgYGYX4.s 			page 2


  59      00000000 
  59      00000000 
  59      00000000 
  59      00000000 
  60              		.section	.bss.xTasksWaitingTermination,"aw",%nobits
  61              		.align	2
  64              	xTasksWaitingTermination:
  65 0000 00000000 		.space	20
  65      00000000 
  65      00000000 
  65      00000000 
  65      00000000 
  66              		.section	.bss.uxDeletedTasksWaitingCleanUp,"aw",%nobits
  67              		.align	2
  70              	uxDeletedTasksWaitingCleanUp:
  71 0000 00000000 		.space	4
  72              		.section	.bss.xSuspendedTaskList,"aw",%nobits
  73              		.align	2
  76              	xSuspendedTaskList:
  77 0000 00000000 		.space	20
  77      00000000 
  77      00000000 
  77      00000000 
  77      00000000 
  78              		.section	.bss.uxCurrentNumberOfTasks,"aw",%nobits
  79              		.align	2
  82              	uxCurrentNumberOfTasks:
  83 0000 00000000 		.space	4
  84              		.section	.bss.xTickCount,"aw",%nobits
  85              		.align	2
  88              	xTickCount:
  89 0000 00000000 		.space	4
  90              		.section	.bss.uxTopReadyPriority,"aw",%nobits
  91              		.align	2
  94              	uxTopReadyPriority:
  95 0000 00000000 		.space	4
  96              		.section	.bss.xSchedulerRunning,"aw",%nobits
  97              		.align	2
 100              	xSchedulerRunning:
 101 0000 00000000 		.space	4
 102              		.section	.bss.xPendedTicks,"aw",%nobits
 103              		.align	2
 106              	xPendedTicks:
 107 0000 00000000 		.space	4
 108              		.section	.bss.xYieldPendings,"aw",%nobits
 109              		.align	2
 112              	xYieldPendings:
 113 0000 00000000 		.space	4
 114              		.section	.bss.xNumOfOverflows,"aw",%nobits
 115              		.align	2
 118              	xNumOfOverflows:
 119 0000 00000000 		.space	4
 120              		.section	.bss.uxTaskNumber,"aw",%nobits
 121              		.align	2
 124              	uxTaskNumber:
 125 0000 00000000 		.space	4
 126              		.section	.bss.xNextTaskUnblockTime,"aw",%nobits
ARM GAS  C:\Users\phamt\AppData\Local\Temp\ccgYGYX4.s 			page 3


 127              		.align	2
 130              	xNextTaskUnblockTime:
 131 0000 00000000 		.space	4
 132              		.section	.bss.xIdleTaskHandles,"aw",%nobits
 133              		.align	2
 136              	xIdleTaskHandles:
 137 0000 00000000 		.space	4
 138              		.section	.data.uxTopUsedPriority,"aw"
 139              		.align	2
 142              	uxTopUsedPriority:
 143 0000 37000000 		.word	55
 144              		.section	.bss.uxSchedulerSuspended,"aw",%nobits
 145              		.align	2
 148              	uxSchedulerSuspended:
 149 0000 00000000 		.space	4
 150              		.section	.text.prvCreateTask,"ax",%progbits
 151              		.align	1
 152              		.syntax unified
 153              		.thumb
 154              		.thumb_func
 156              	prvCreateTask:
 157              		@ args = 8, pretend = 0, frame = 24
 158              		@ frame_needed = 1, uses_anonymous_args = 0
 159 0000 80B5     		push	{r7, lr}
 160 0002 8AB0     		sub	sp, sp, #40
 161 0004 04AF     		add	r7, sp, #16
 162 0006 F860     		str	r0, [r7, #12]
 163 0008 B960     		str	r1, [r7, #8]
 164 000a 7A60     		str	r2, [r7, #4]
 165 000c 3B60     		str	r3, [r7]
 166 000e 7B68     		ldr	r3, [r7, #4]
 167 0010 9B00     		lsls	r3, r3, #2
 168 0012 1846     		mov	r0, r3
 169 0014 FFF7FEFF 		bl	pvPortMalloc
 170 0018 3861     		str	r0, [r7, #16]
 171 001a 3B69     		ldr	r3, [r7, #16]
 172 001c 002B     		cmp	r3, #0
 173 001e 13D0     		beq	.L2
 174 0020 5C20     		movs	r0, #92
 175 0022 FFF7FEFF 		bl	pvPortMalloc
 176 0026 7861     		str	r0, [r7, #20]
 177 0028 7B69     		ldr	r3, [r7, #20]
 178 002a 002B     		cmp	r3, #0
 179 002c 08D0     		beq	.L3
 180 002e 5C22     		movs	r2, #92
 181 0030 0021     		movs	r1, #0
 182 0032 7869     		ldr	r0, [r7, #20]
 183 0034 FFF7FEFF 		bl	memset
 184 0038 7B69     		ldr	r3, [r7, #20]
 185 003a 3A69     		ldr	r2, [r7, #16]
 186 003c 1A63     		str	r2, [r3, #48]
 187 003e 05E0     		b	.L4
 188              	.L3:
 189 0040 3869     		ldr	r0, [r7, #16]
 190 0042 FFF7FEFF 		bl	vPortFree
 191 0046 01E0     		b	.L4
 192              	.L2:
ARM GAS  C:\Users\phamt\AppData\Local\Temp\ccgYGYX4.s 			page 4


 193 0048 0023     		movs	r3, #0
 194 004a 7B61     		str	r3, [r7, #20]
 195              	.L4:
 196 004c 7B69     		ldr	r3, [r7, #20]
 197 004e 002B     		cmp	r3, #0
 198 0050 0DD0     		beq	.L5
 199 0052 0023     		movs	r3, #0
 200 0054 0393     		str	r3, [sp, #12]
 201 0056 7B69     		ldr	r3, [r7, #20]
 202 0058 0293     		str	r3, [sp, #8]
 203 005a 7B6A     		ldr	r3, [r7, #36]
 204 005c 0193     		str	r3, [sp, #4]
 205 005e 3B6A     		ldr	r3, [r7, #32]
 206 0060 0093     		str	r3, [sp]
 207 0062 3B68     		ldr	r3, [r7]
 208 0064 7A68     		ldr	r2, [r7, #4]
 209 0066 B968     		ldr	r1, [r7, #8]
 210 0068 F868     		ldr	r0, [r7, #12]
 211 006a FFF7FEFF 		bl	prvInitialiseNewTask
 212              	.L5:
 213 006e 7B69     		ldr	r3, [r7, #20]
 214 0070 1846     		mov	r0, r3
 215 0072 1837     		adds	r7, r7, #24
 216 0074 BD46     		mov	sp, r7
 217              		@ sp needed
 218 0076 80BD     		pop	{r7, pc}
 220              		.section	.text.xTaskCreate,"ax",%progbits
 221              		.align	1
 222              		.global	xTaskCreate
 223              		.syntax unified
 224              		.thumb
 225              		.thumb_func
 227              	xTaskCreate:
 228              		@ args = 8, pretend = 0, frame = 24
 229              		@ frame_needed = 1, uses_anonymous_args = 0
 230 0000 80B5     		push	{r7, lr}
 231 0002 88B0     		sub	sp, sp, #32
 232 0004 02AF     		add	r7, sp, #8
 233 0006 F860     		str	r0, [r7, #12]
 234 0008 B960     		str	r1, [r7, #8]
 235 000a 7A60     		str	r2, [r7, #4]
 236 000c 3B60     		str	r3, [r7]
 237 000e 7B6A     		ldr	r3, [r7, #36]
 238 0010 0193     		str	r3, [sp, #4]
 239 0012 3B6A     		ldr	r3, [r7, #32]
 240 0014 0093     		str	r3, [sp]
 241 0016 3B68     		ldr	r3, [r7]
 242 0018 7A68     		ldr	r2, [r7, #4]
 243 001a B968     		ldr	r1, [r7, #8]
 244 001c F868     		ldr	r0, [r7, #12]
 245 001e FFF7FEFF 		bl	prvCreateTask
 246 0022 3861     		str	r0, [r7, #16]
 247 0024 3B69     		ldr	r3, [r7, #16]
 248 0026 002B     		cmp	r3, #0
 249 0028 05D0     		beq	.L8
 250 002a 3869     		ldr	r0, [r7, #16]
 251 002c FFF7FEFF 		bl	prvAddNewTaskToReadyList
ARM GAS  C:\Users\phamt\AppData\Local\Temp\ccgYGYX4.s 			page 5


 252 0030 0123     		movs	r3, #1
 253 0032 7B61     		str	r3, [r7, #20]
 254 0034 02E0     		b	.L9
 255              	.L8:
 256 0036 4FF0FF33 		mov	r3, #-1
 257 003a 7B61     		str	r3, [r7, #20]
 258              	.L9:
 259 003c 7B69     		ldr	r3, [r7, #20]
 260 003e 1846     		mov	r0, r3
 261 0040 1837     		adds	r7, r7, #24
 262 0042 BD46     		mov	sp, r7
 263              		@ sp needed
 264 0044 80BD     		pop	{r7, pc}
 266              		.section	.text.prvInitialiseNewTask,"ax",%progbits
 267              		.align	1
 268              		.syntax unified
 269              		.thumb
 270              		.thumb_func
 272              	prvInitialiseNewTask:
 273              		@ args = 16, pretend = 0, frame = 32
 274              		@ frame_needed = 1, uses_anonymous_args = 0
 275 0000 80B5     		push	{r7, lr}
 276 0002 88B0     		sub	sp, sp, #32
 277 0004 00AF     		add	r7, sp, #0
 278 0006 F860     		str	r0, [r7, #12]
 279 0008 B960     		str	r1, [r7, #8]
 280 000a 7A60     		str	r2, [r7, #4]
 281 000c 3B60     		str	r3, [r7]
 282 000e 3B6B     		ldr	r3, [r7, #48]
 283 0010 186B     		ldr	r0, [r3, #48]
 284 0012 7B68     		ldr	r3, [r7, #4]
 285 0014 9B00     		lsls	r3, r3, #2
 286 0016 1A46     		mov	r2, r3
 287 0018 A521     		movs	r1, #165
 288 001a FFF7FEFF 		bl	memset
 289 001e 3B6B     		ldr	r3, [r7, #48]
 290 0020 1A6B     		ldr	r2, [r3, #48]
 291 0022 7B68     		ldr	r3, [r7, #4]
 292 0024 03F18043 		add	r3, r3, #1073741824
 293 0028 013B     		subs	r3, r3, #1
 294 002a 9B00     		lsls	r3, r3, #2
 295 002c 1344     		add	r3, r3, r2
 296 002e BB61     		str	r3, [r7, #24]
 297 0030 BB69     		ldr	r3, [r7, #24]
 298 0032 23F00703 		bic	r3, r3, #7
 299 0036 BB61     		str	r3, [r7, #24]
 300 0038 BB69     		ldr	r3, [r7, #24]
 301 003a 03F00703 		and	r3, r3, #7
 302 003e 002B     		cmp	r3, #0
 303 0040 0AD0     		beq	.L12
 304              		.syntax unified
 305              	@ 217 "FreeRTOS/portable/GCC/ARM_CM4F/portmacro.h" 1
 306 0042 4FF05003 		   mov r3, #80                                              
 307 0046 83F31188 	   msr basepri, r3                                         
 308 004a BFF36F8F 	   isb                                                     
 309 004e BFF34F8F 	   dsb                                                     
 310              	
ARM GAS  C:\Users\phamt\AppData\Local\Temp\ccgYGYX4.s 			page 6


 311              	@ 0 "" 2
 312              		.thumb
 313              		.syntax unified
 314 0052 7B61     		str	r3, [r7, #20]
 315 0054 00BF     		nop
 316              	.L13:
 317 0056 FEE7     		b	.L13
 318              	.L12:
 319 0058 BB68     		ldr	r3, [r7, #8]
 320 005a 002B     		cmp	r3, #0
 321 005c 1ED0     		beq	.L14
 322 005e 0023     		movs	r3, #0
 323 0060 FB61     		str	r3, [r7, #28]
 324 0062 12E0     		b	.L15
 325              	.L18:
 326 0064 BA68     		ldr	r2, [r7, #8]
 327 0066 FB69     		ldr	r3, [r7, #28]
 328 0068 1344     		add	r3, r3, r2
 329 006a 1978     		ldrb	r1, [r3]	@ zero_extendqisi2
 330 006c 3A6B     		ldr	r2, [r7, #48]
 331 006e FB69     		ldr	r3, [r7, #28]
 332 0070 1344     		add	r3, r3, r2
 333 0072 3433     		adds	r3, r3, #52
 334 0074 0A46     		mov	r2, r1
 335 0076 1A70     		strb	r2, [r3]
 336 0078 BA68     		ldr	r2, [r7, #8]
 337 007a FB69     		ldr	r3, [r7, #28]
 338 007c 1344     		add	r3, r3, r2
 339 007e 1B78     		ldrb	r3, [r3]	@ zero_extendqisi2
 340 0080 002B     		cmp	r3, #0
 341 0082 06D0     		beq	.L23
 342 0084 FB69     		ldr	r3, [r7, #28]
 343 0086 0133     		adds	r3, r3, #1
 344 0088 FB61     		str	r3, [r7, #28]
 345              	.L15:
 346 008a FB69     		ldr	r3, [r7, #28]
 347 008c 0F2B     		cmp	r3, #15
 348 008e E9D9     		bls	.L18
 349 0090 00E0     		b	.L17
 350              	.L23:
 351 0092 00BF     		nop
 352              	.L17:
 353 0094 3B6B     		ldr	r3, [r7, #48]
 354 0096 0022     		movs	r2, #0
 355 0098 83F84320 		strb	r2, [r3, #67]
 356              	.L14:
 357 009c BB6A     		ldr	r3, [r7, #40]
 358 009e 372B     		cmp	r3, #55
 359 00a0 0AD9     		bls	.L19
 360              		.syntax unified
 361              	@ 217 "FreeRTOS/portable/GCC/ARM_CM4F/portmacro.h" 1
 362 00a2 4FF05003 		   mov r3, #80                                              
 363 00a6 83F31188 	   msr basepri, r3                                         
 364 00aa BFF36F8F 	   isb                                                     
 365 00ae BFF34F8F 	   dsb                                                     
 366              	
 367              	@ 0 "" 2
ARM GAS  C:\Users\phamt\AppData\Local\Temp\ccgYGYX4.s 			page 7


 368              		.thumb
 369              		.syntax unified
 370 00b2 3B61     		str	r3, [r7, #16]
 371 00b4 00BF     		nop
 372              	.L20:
 373 00b6 FEE7     		b	.L20
 374              	.L19:
 375 00b8 BB6A     		ldr	r3, [r7, #40]
 376 00ba 372B     		cmp	r3, #55
 377 00bc 01D9     		bls	.L21
 378 00be 3723     		movs	r3, #55
 379 00c0 BB62     		str	r3, [r7, #40]
 380              	.L21:
 381 00c2 3B6B     		ldr	r3, [r7, #48]
 382 00c4 BA6A     		ldr	r2, [r7, #40]
 383 00c6 DA62     		str	r2, [r3, #44]
 384 00c8 3B6B     		ldr	r3, [r7, #48]
 385 00ca BA6A     		ldr	r2, [r7, #40]
 386 00cc DA64     		str	r2, [r3, #76]
 387 00ce 3B6B     		ldr	r3, [r7, #48]
 388 00d0 0433     		adds	r3, r3, #4
 389 00d2 1846     		mov	r0, r3
 390 00d4 FFF7FEFF 		bl	vListInitialiseItem
 391 00d8 3B6B     		ldr	r3, [r7, #48]
 392 00da 1833     		adds	r3, r3, #24
 393 00dc 1846     		mov	r0, r3
 394 00de FFF7FEFF 		bl	vListInitialiseItem
 395 00e2 3B6B     		ldr	r3, [r7, #48]
 396 00e4 3A6B     		ldr	r2, [r7, #48]
 397 00e6 1A61     		str	r2, [r3, #16]
 398 00e8 BB6A     		ldr	r3, [r7, #40]
 399 00ea C3F13802 		rsb	r2, r3, #56
 400 00ee 3B6B     		ldr	r3, [r7, #48]
 401 00f0 9A61     		str	r2, [r3, #24]
 402 00f2 3B6B     		ldr	r3, [r7, #48]
 403 00f4 3A6B     		ldr	r2, [r7, #48]
 404 00f6 5A62     		str	r2, [r3, #36]
 405 00f8 3A68     		ldr	r2, [r7]
 406 00fa F968     		ldr	r1, [r7, #12]
 407 00fc B869     		ldr	r0, [r7, #24]
 408 00fe FFF7FEFF 		bl	pxPortInitialiseStack
 409 0102 0246     		mov	r2, r0
 410 0104 3B6B     		ldr	r3, [r7, #48]
 411 0106 1A60     		str	r2, [r3]
 412 0108 FB6A     		ldr	r3, [r7, #44]
 413 010a 002B     		cmp	r3, #0
 414 010c 02D0     		beq	.L24
 415 010e FB6A     		ldr	r3, [r7, #44]
 416 0110 3A6B     		ldr	r2, [r7, #48]
 417 0112 1A60     		str	r2, [r3]
 418              	.L24:
 419 0114 00BF     		nop
 420 0116 2037     		adds	r7, r7, #32
 421 0118 BD46     		mov	sp, r7
 422              		@ sp needed
 423 011a 80BD     		pop	{r7, pc}
 425              		.section	.text.prvAddNewTaskToReadyList,"ax",%progbits
ARM GAS  C:\Users\phamt\AppData\Local\Temp\ccgYGYX4.s 			page 8


 426              		.align	1
 427              		.syntax unified
 428              		.thumb
 429              		.thumb_func
 431              	prvAddNewTaskToReadyList:
 432              		@ args = 0, pretend = 0, frame = 16
 433              		@ frame_needed = 1, uses_anonymous_args = 0
 434 0000 80B5     		push	{r7, lr}
 435 0002 84B0     		sub	sp, sp, #16
 436 0004 00AF     		add	r7, sp, #0
 437 0006 7860     		str	r0, [r7, #4]
 438 0008 FFF7FEFF 		bl	vPortEnterCritical
 439 000c 424B     		ldr	r3, .L31
 440 000e 1B68     		ldr	r3, [r3]
 441 0010 0133     		adds	r3, r3, #1
 442 0012 414A     		ldr	r2, .L31
 443 0014 1360     		str	r3, [r2]
 444 0016 414B     		ldr	r3, .L31+4
 445 0018 1B68     		ldr	r3, [r3]
 446 001a 002B     		cmp	r3, #0
 447 001c 09D1     		bne	.L26
 448 001e 3F4A     		ldr	r2, .L31+4
 449 0020 7B68     		ldr	r3, [r7, #4]
 450 0022 1360     		str	r3, [r2]
 451 0024 3C4B     		ldr	r3, .L31
 452 0026 1B68     		ldr	r3, [r3]
 453 0028 012B     		cmp	r3, #1
 454 002a 10D1     		bne	.L27
 455 002c FFF7FEFF 		bl	prvInitialiseTaskLists
 456 0030 0DE0     		b	.L27
 457              	.L26:
 458 0032 3B4B     		ldr	r3, .L31+8
 459 0034 1B68     		ldr	r3, [r3]
 460 0036 002B     		cmp	r3, #0
 461 0038 09D1     		bne	.L27
 462 003a 384B     		ldr	r3, .L31+4
 463 003c 1B68     		ldr	r3, [r3]
 464 003e DA6A     		ldr	r2, [r3, #44]
 465 0040 7B68     		ldr	r3, [r7, #4]
 466 0042 DB6A     		ldr	r3, [r3, #44]
 467 0044 9A42     		cmp	r2, r3
 468 0046 02D8     		bhi	.L27
 469 0048 344A     		ldr	r2, .L31+4
 470 004a 7B68     		ldr	r3, [r7, #4]
 471 004c 1360     		str	r3, [r2]
 472              	.L27:
 473 004e 354B     		ldr	r3, .L31+12
 474 0050 1B68     		ldr	r3, [r3]
 475 0052 0133     		adds	r3, r3, #1
 476 0054 334A     		ldr	r2, .L31+12
 477 0056 1360     		str	r3, [r2]
 478 0058 324B     		ldr	r3, .L31+12
 479 005a 1A68     		ldr	r2, [r3]
 480 005c 7B68     		ldr	r3, [r7, #4]
 481 005e 5A64     		str	r2, [r3, #68]
 482 0060 7B68     		ldr	r3, [r7, #4]
 483 0062 DA6A     		ldr	r2, [r3, #44]
ARM GAS  C:\Users\phamt\AppData\Local\Temp\ccgYGYX4.s 			page 9


 484 0064 304B     		ldr	r3, .L31+16
 485 0066 1B68     		ldr	r3, [r3]
 486 0068 9A42     		cmp	r2, r3
 487 006a 03D9     		bls	.L28
 488 006c 7B68     		ldr	r3, [r7, #4]
 489 006e DB6A     		ldr	r3, [r3, #44]
 490 0070 2D4A     		ldr	r2, .L31+16
 491 0072 1360     		str	r3, [r2]
 492              	.L28:
 493 0074 7B68     		ldr	r3, [r7, #4]
 494 0076 DA6A     		ldr	r2, [r3, #44]
 495 0078 2C49     		ldr	r1, .L31+20
 496 007a 1346     		mov	r3, r2
 497 007c 9B00     		lsls	r3, r3, #2
 498 007e 1344     		add	r3, r3, r2
 499 0080 9B00     		lsls	r3, r3, #2
 500 0082 0B44     		add	r3, r3, r1
 501 0084 0433     		adds	r3, r3, #4
 502 0086 1B68     		ldr	r3, [r3]
 503 0088 FB60     		str	r3, [r7, #12]
 504 008a 7B68     		ldr	r3, [r7, #4]
 505 008c FA68     		ldr	r2, [r7, #12]
 506 008e 9A60     		str	r2, [r3, #8]
 507 0090 FB68     		ldr	r3, [r7, #12]
 508 0092 9A68     		ldr	r2, [r3, #8]
 509 0094 7B68     		ldr	r3, [r7, #4]
 510 0096 DA60     		str	r2, [r3, #12]
 511 0098 FB68     		ldr	r3, [r7, #12]
 512 009a 9B68     		ldr	r3, [r3, #8]
 513 009c 7A68     		ldr	r2, [r7, #4]
 514 009e 0432     		adds	r2, r2, #4
 515 00a0 5A60     		str	r2, [r3, #4]
 516 00a2 7B68     		ldr	r3, [r7, #4]
 517 00a4 1A1D     		adds	r2, r3, #4
 518 00a6 FB68     		ldr	r3, [r7, #12]
 519 00a8 9A60     		str	r2, [r3, #8]
 520 00aa 7B68     		ldr	r3, [r7, #4]
 521 00ac DA6A     		ldr	r2, [r3, #44]
 522 00ae 1346     		mov	r3, r2
 523 00b0 9B00     		lsls	r3, r3, #2
 524 00b2 1344     		add	r3, r3, r2
 525 00b4 9B00     		lsls	r3, r3, #2
 526 00b6 1D4A     		ldr	r2, .L31+20
 527 00b8 1A44     		add	r2, r2, r3
 528 00ba 7B68     		ldr	r3, [r7, #4]
 529 00bc 5A61     		str	r2, [r3, #20]
 530 00be 7B68     		ldr	r3, [r7, #4]
 531 00c0 DA6A     		ldr	r2, [r3, #44]
 532 00c2 1A49     		ldr	r1, .L31+20
 533 00c4 1346     		mov	r3, r2
 534 00c6 9B00     		lsls	r3, r3, #2
 535 00c8 1344     		add	r3, r3, r2
 536 00ca 9B00     		lsls	r3, r3, #2
 537 00cc 0B44     		add	r3, r3, r1
 538 00ce 1B68     		ldr	r3, [r3]
 539 00d0 7A68     		ldr	r2, [r7, #4]
 540 00d2 D26A     		ldr	r2, [r2, #44]
ARM GAS  C:\Users\phamt\AppData\Local\Temp\ccgYGYX4.s 			page 10


 541 00d4 591C     		adds	r1, r3, #1
 542 00d6 1548     		ldr	r0, .L31+20
 543 00d8 1346     		mov	r3, r2
 544 00da 9B00     		lsls	r3, r3, #2
 545 00dc 1344     		add	r3, r3, r2
 546 00de 9B00     		lsls	r3, r3, #2
 547 00e0 0344     		add	r3, r3, r0
 548 00e2 1960     		str	r1, [r3]
 549 00e4 FFF7FEFF 		bl	vPortExitCritical
 550 00e8 0D4B     		ldr	r3, .L31+8
 551 00ea 1B68     		ldr	r3, [r3]
 552 00ec 002B     		cmp	r3, #0
 553 00ee 0ED0     		beq	.L30
 554 00f0 0A4B     		ldr	r3, .L31+4
 555 00f2 1B68     		ldr	r3, [r3]
 556 00f4 DA6A     		ldr	r2, [r3, #44]
 557 00f6 7B68     		ldr	r3, [r7, #4]
 558 00f8 DB6A     		ldr	r3, [r3, #44]
 559 00fa 9A42     		cmp	r2, r3
 560 00fc 07D2     		bcs	.L30
 561 00fe 0C4B     		ldr	r3, .L31+24
 562 0100 4FF08052 		mov	r2, #268435456
 563 0104 1A60     		str	r2, [r3]
 564              		.syntax unified
 565              	@ 2089 "FreeRTOS/tasks.c" 1
 566 0106 BFF34F8F 		dsb
 567              	@ 0 "" 2
 568              	@ 2089 "FreeRTOS/tasks.c" 1
 569 010a BFF36F8F 		isb
 570              	@ 0 "" 2
 571              		.thumb
 572              		.syntax unified
 573              	.L30:
 574 010e 00BF     		nop
 575 0110 1037     		adds	r7, r7, #16
 576 0112 BD46     		mov	sp, r7
 577              		@ sp needed
 578 0114 80BD     		pop	{r7, pc}
 579              	.L32:
 580 0116 00BF     		.align	2
 581              	.L31:
 582 0118 00000000 		.word	uxCurrentNumberOfTasks
 583 011c 00000000 		.word	pxCurrentTCB
 584 0120 00000000 		.word	xSchedulerRunning
 585 0124 00000000 		.word	uxTaskNumber
 586 0128 00000000 		.word	uxTopReadyPriority
 587 012c 00000000 		.word	pxReadyTasksLists
 588 0130 04ED00E0 		.word	-536810236
 590              		.section	.text.vTaskDelete,"ax",%progbits
 591              		.align	1
 592              		.global	vTaskDelete
 593              		.syntax unified
 594              		.thumb
 595              		.thumb_func
 597              	vTaskDelete:
 598              		@ args = 0, pretend = 0, frame = 24
 599              		@ frame_needed = 1, uses_anonymous_args = 0
ARM GAS  C:\Users\phamt\AppData\Local\Temp\ccgYGYX4.s 			page 11


 600 0000 80B5     		push	{r7, lr}
 601 0002 86B0     		sub	sp, sp, #24
 602 0004 00AF     		add	r7, sp, #0
 603 0006 7860     		str	r0, [r7, #4]
 604 0008 0023     		movs	r3, #0
 605 000a 7B61     		str	r3, [r7, #20]
 606 000c FFF7FEFF 		bl	vPortEnterCritical
 607 0010 7B68     		ldr	r3, [r7, #4]
 608 0012 002B     		cmp	r3, #0
 609 0014 02D1     		bne	.L34
 610 0016 344B     		ldr	r3, .L46
 611 0018 1B68     		ldr	r3, [r3]
 612 001a 00E0     		b	.L35
 613              	.L34:
 614 001c 7B68     		ldr	r3, [r7, #4]
 615              	.L35:
 616 001e 3B61     		str	r3, [r7, #16]
 617 0020 3B69     		ldr	r3, [r7, #16]
 618 0022 0433     		adds	r3, r3, #4
 619 0024 1846     		mov	r0, r3
 620 0026 FFF7FEFF 		bl	uxListRemove
 621 002a 3B69     		ldr	r3, [r7, #16]
 622 002c 9B6A     		ldr	r3, [r3, #40]
 623 002e 002B     		cmp	r3, #0
 624 0030 04D0     		beq	.L36
 625 0032 3B69     		ldr	r3, [r7, #16]
 626 0034 1833     		adds	r3, r3, #24
 627 0036 1846     		mov	r0, r3
 628 0038 FFF7FEFF 		bl	uxListRemove
 629              	.L36:
 630 003c 2B4B     		ldr	r3, .L46+4
 631 003e 1B68     		ldr	r3, [r3]
 632 0040 0133     		adds	r3, r3, #1
 633 0042 2A4A     		ldr	r2, .L46+4
 634 0044 1360     		str	r3, [r2]
 635 0046 284B     		ldr	r3, .L46
 636 0048 1B68     		ldr	r3, [r3]
 637 004a 3A69     		ldr	r2, [r7, #16]
 638 004c 9A42     		cmp	r2, r3
 639 004e 01D1     		bne	.L37
 640 0050 0123     		movs	r3, #1
 641 0052 00E0     		b	.L38
 642              	.L37:
 643 0054 0023     		movs	r3, #0
 644              	.L38:
 645 0056 FB60     		str	r3, [r7, #12]
 646 0058 254B     		ldr	r3, .L46+8
 647 005a 1B68     		ldr	r3, [r3]
 648 005c 002B     		cmp	r3, #0
 649 005e 10D0     		beq	.L39
 650 0060 FB68     		ldr	r3, [r7, #12]
 651 0062 002B     		cmp	r3, #0
 652 0064 0DD0     		beq	.L39
 653 0066 3B69     		ldr	r3, [r7, #16]
 654 0068 0433     		adds	r3, r3, #4
 655 006a 1946     		mov	r1, r3
 656 006c 2148     		ldr	r0, .L46+12
ARM GAS  C:\Users\phamt\AppData\Local\Temp\ccgYGYX4.s 			page 12


 657 006e FFF7FEFF 		bl	vListInsertEnd
 658 0072 214B     		ldr	r3, .L46+16
 659 0074 1B68     		ldr	r3, [r3]
 660 0076 0133     		adds	r3, r3, #1
 661 0078 1F4A     		ldr	r2, .L46+16
 662 007a 1360     		str	r3, [r2]
 663 007c 0123     		movs	r3, #1
 664 007e 7B61     		str	r3, [r7, #20]
 665 0080 06E0     		b	.L40
 666              	.L39:
 667 0082 1E4B     		ldr	r3, .L46+20
 668 0084 1B68     		ldr	r3, [r3]
 669 0086 013B     		subs	r3, r3, #1
 670 0088 1C4A     		ldr	r2, .L46+20
 671 008a 1360     		str	r3, [r2]
 672 008c FFF7FEFF 		bl	prvResetNextTaskUnblockTime
 673              	.L40:
 674 0090 FFF7FEFF 		bl	vPortExitCritical
 675 0094 7B69     		ldr	r3, [r7, #20]
 676 0096 012B     		cmp	r3, #1
 677 0098 02D0     		beq	.L41
 678 009a 3869     		ldr	r0, [r7, #16]
 679 009c FFF7FEFF 		bl	prvDeleteTCB
 680              	.L41:
 681 00a0 134B     		ldr	r3, .L46+8
 682 00a2 1B68     		ldr	r3, [r3]
 683 00a4 002B     		cmp	r3, #0
 684 00a6 1BD0     		beq	.L45
 685 00a8 0F4B     		ldr	r3, .L46
 686 00aa 1B68     		ldr	r3, [r3]
 687 00ac 3A69     		ldr	r2, [r7, #16]
 688 00ae 9A42     		cmp	r2, r3
 689 00b0 16D1     		bne	.L45
 690 00b2 134B     		ldr	r3, .L46+24
 691 00b4 1B68     		ldr	r3, [r3]
 692 00b6 002B     		cmp	r3, #0
 693 00b8 0AD0     		beq	.L43
 694              		.syntax unified
 695              	@ 217 "FreeRTOS/portable/GCC/ARM_CM4F/portmacro.h" 1
 696 00ba 4FF05003 		   mov r3, #80                                              
 697 00be 83F31188 	   msr basepri, r3                                         
 698 00c2 BFF36F8F 	   isb                                                     
 699 00c6 BFF34F8F 	   dsb                                                     
 700              	
 701              	@ 0 "" 2
 702              		.thumb
 703              		.syntax unified
 704 00ca BB60     		str	r3, [r7, #8]
 705 00cc 00BF     		nop
 706              	.L44:
 707 00ce FEE7     		b	.L44
 708              	.L43:
 709 00d0 0C4B     		ldr	r3, .L46+28
 710 00d2 4FF08052 		mov	r2, #268435456
 711 00d6 1A60     		str	r2, [r3]
 712              		.syntax unified
 713              	@ 2327 "FreeRTOS/tasks.c" 1
ARM GAS  C:\Users\phamt\AppData\Local\Temp\ccgYGYX4.s 			page 13


 714 00d8 BFF34F8F 		dsb
 715              	@ 0 "" 2
 716              	@ 2327 "FreeRTOS/tasks.c" 1
 717 00dc BFF36F8F 		isb
 718              	@ 0 "" 2
 719              		.thumb
 720              		.syntax unified
 721              	.L45:
 722 00e0 00BF     		nop
 723 00e2 1837     		adds	r7, r7, #24
 724 00e4 BD46     		mov	sp, r7
 725              		@ sp needed
 726 00e6 80BD     		pop	{r7, pc}
 727              	.L47:
 728              		.align	2
 729              	.L46:
 730 00e8 00000000 		.word	pxCurrentTCB
 731 00ec 00000000 		.word	uxTaskNumber
 732 00f0 00000000 		.word	xSchedulerRunning
 733 00f4 00000000 		.word	xTasksWaitingTermination
 734 00f8 00000000 		.word	uxDeletedTasksWaitingCleanUp
 735 00fc 00000000 		.word	uxCurrentNumberOfTasks
 736 0100 00000000 		.word	uxSchedulerSuspended
 737 0104 04ED00E0 		.word	-536810236
 739              		.section	.text.xTaskDelayUntil,"ax",%progbits
 740              		.align	1
 741              		.global	xTaskDelayUntil
 742              		.syntax unified
 743              		.thumb
 744              		.thumb_func
 746              	xTaskDelayUntil:
 747              		@ args = 0, pretend = 0, frame = 40
 748              		@ frame_needed = 1, uses_anonymous_args = 0
 749 0000 80B5     		push	{r7, lr}
 750 0002 8AB0     		sub	sp, sp, #40
 751 0004 00AF     		add	r7, sp, #0
 752 0006 7860     		str	r0, [r7, #4]
 753 0008 3960     		str	r1, [r7]
 754 000a 0023     		movs	r3, #0
 755 000c 7B62     		str	r3, [r7, #36]
 756 000e 7B68     		ldr	r3, [r7, #4]
 757 0010 002B     		cmp	r3, #0
 758 0012 0AD1     		bne	.L49
 759              		.syntax unified
 760              	@ 217 "FreeRTOS/portable/GCC/ARM_CM4F/portmacro.h" 1
 761 0014 4FF05003 		   mov r3, #80                                              
 762 0018 83F31188 	   msr basepri, r3                                         
 763 001c BFF36F8F 	   isb                                                     
 764 0020 BFF34F8F 	   dsb                                                     
 765              	
 766              	@ 0 "" 2
 767              		.thumb
 768              		.syntax unified
 769 0024 7B61     		str	r3, [r7, #20]
 770 0026 00BF     		nop
 771              	.L50:
 772 0028 FEE7     		b	.L50
ARM GAS  C:\Users\phamt\AppData\Local\Temp\ccgYGYX4.s 			page 14


 773              	.L49:
 774 002a 3B68     		ldr	r3, [r7]
 775 002c 002B     		cmp	r3, #0
 776 002e 0AD1     		bne	.L51
 777              		.syntax unified
 778              	@ 217 "FreeRTOS/portable/GCC/ARM_CM4F/portmacro.h" 1
 779 0030 4FF05003 		   mov r3, #80                                              
 780 0034 83F31188 	   msr basepri, r3                                         
 781 0038 BFF36F8F 	   isb                                                     
 782 003c BFF34F8F 	   dsb                                                     
 783              	
 784              	@ 0 "" 2
 785              		.thumb
 786              		.syntax unified
 787 0040 3B61     		str	r3, [r7, #16]
 788 0042 00BF     		nop
 789              	.L52:
 790 0044 FEE7     		b	.L52
 791              	.L51:
 792 0046 FFF7FEFF 		bl	vTaskSuspendAll
 793 004a 294B     		ldr	r3, .L61
 794 004c 1B68     		ldr	r3, [r3]
 795 004e 3B62     		str	r3, [r7, #32]
 796 0050 284B     		ldr	r3, .L61+4
 797 0052 1B68     		ldr	r3, [r3]
 798 0054 012B     		cmp	r3, #1
 799 0056 0AD0     		beq	.L53
 800              		.syntax unified
 801              	@ 217 "FreeRTOS/portable/GCC/ARM_CM4F/portmacro.h" 1
 802 0058 4FF05003 		   mov r3, #80                                              
 803 005c 83F31188 	   msr basepri, r3                                         
 804 0060 BFF36F8F 	   isb                                                     
 805 0064 BFF34F8F 	   dsb                                                     
 806              	
 807              	@ 0 "" 2
 808              		.thumb
 809              		.syntax unified
 810 0068 FB60     		str	r3, [r7, #12]
 811 006a 00BF     		nop
 812              	.L54:
 813 006c FEE7     		b	.L54
 814              	.L53:
 815 006e 7B68     		ldr	r3, [r7, #4]
 816 0070 1B68     		ldr	r3, [r3]
 817 0072 3A68     		ldr	r2, [r7]
 818 0074 1344     		add	r3, r3, r2
 819 0076 FB61     		str	r3, [r7, #28]
 820 0078 7B68     		ldr	r3, [r7, #4]
 821 007a 1B68     		ldr	r3, [r3]
 822 007c 3A6A     		ldr	r2, [r7, #32]
 823 007e 9A42     		cmp	r2, r3
 824 0080 0BD2     		bcs	.L55
 825 0082 7B68     		ldr	r3, [r7, #4]
 826 0084 1B68     		ldr	r3, [r3]
 827 0086 FA69     		ldr	r2, [r7, #28]
 828 0088 9A42     		cmp	r2, r3
 829 008a 11D2     		bcs	.L56
ARM GAS  C:\Users\phamt\AppData\Local\Temp\ccgYGYX4.s 			page 15


 830 008c FA69     		ldr	r2, [r7, #28]
 831 008e 3B6A     		ldr	r3, [r7, #32]
 832 0090 9A42     		cmp	r2, r3
 833 0092 0DD9     		bls	.L56
 834 0094 0123     		movs	r3, #1
 835 0096 7B62     		str	r3, [r7, #36]
 836 0098 0AE0     		b	.L56
 837              	.L55:
 838 009a 7B68     		ldr	r3, [r7, #4]
 839 009c 1B68     		ldr	r3, [r3]
 840 009e FA69     		ldr	r2, [r7, #28]
 841 00a0 9A42     		cmp	r2, r3
 842 00a2 03D3     		bcc	.L57
 843 00a4 FA69     		ldr	r2, [r7, #28]
 844 00a6 3B6A     		ldr	r3, [r7, #32]
 845 00a8 9A42     		cmp	r2, r3
 846 00aa 01D9     		bls	.L56
 847              	.L57:
 848 00ac 0123     		movs	r3, #1
 849 00ae 7B62     		str	r3, [r7, #36]
 850              	.L56:
 851 00b0 7B68     		ldr	r3, [r7, #4]
 852 00b2 FA69     		ldr	r2, [r7, #28]
 853 00b4 1A60     		str	r2, [r3]
 854 00b6 7B6A     		ldr	r3, [r7, #36]
 855 00b8 002B     		cmp	r3, #0
 856 00ba 06D0     		beq	.L58
 857 00bc FA69     		ldr	r2, [r7, #28]
 858 00be 3B6A     		ldr	r3, [r7, #32]
 859 00c0 D31A     		subs	r3, r2, r3
 860 00c2 0021     		movs	r1, #0
 861 00c4 1846     		mov	r0, r3
 862 00c6 FFF7FEFF 		bl	prvAddCurrentTaskToDelayedList
 863              	.L58:
 864 00ca FFF7FEFF 		bl	xTaskResumeAll
 865 00ce B861     		str	r0, [r7, #24]
 866 00d0 BB69     		ldr	r3, [r7, #24]
 867 00d2 002B     		cmp	r3, #0
 868 00d4 07D1     		bne	.L59
 869 00d6 084B     		ldr	r3, .L61+8
 870 00d8 4FF08052 		mov	r2, #268435456
 871 00dc 1A60     		str	r2, [r3]
 872              		.syntax unified
 873              	@ 2420 "FreeRTOS/tasks.c" 1
 874 00de BFF34F8F 		dsb
 875              	@ 0 "" 2
 876              	@ 2420 "FreeRTOS/tasks.c" 1
 877 00e2 BFF36F8F 		isb
 878              	@ 0 "" 2
 879              		.thumb
 880              		.syntax unified
 881              	.L59:
 882 00e6 7B6A     		ldr	r3, [r7, #36]
 883 00e8 1846     		mov	r0, r3
 884 00ea 2837     		adds	r7, r7, #40
 885 00ec BD46     		mov	sp, r7
 886              		@ sp needed
ARM GAS  C:\Users\phamt\AppData\Local\Temp\ccgYGYX4.s 			page 16


 887 00ee 80BD     		pop	{r7, pc}
 888              	.L62:
 889              		.align	2
 890              	.L61:
 891 00f0 00000000 		.word	xTickCount
 892 00f4 00000000 		.word	uxSchedulerSuspended
 893 00f8 04ED00E0 		.word	-536810236
 895              		.section	.text.vTaskDelay,"ax",%progbits
 896              		.align	1
 897              		.global	vTaskDelay
 898              		.syntax unified
 899              		.thumb
 900              		.thumb_func
 902              	vTaskDelay:
 903              		@ args = 0, pretend = 0, frame = 16
 904              		@ frame_needed = 1, uses_anonymous_args = 0
 905 0000 80B5     		push	{r7, lr}
 906 0002 84B0     		sub	sp, sp, #16
 907 0004 00AF     		add	r7, sp, #0
 908 0006 7860     		str	r0, [r7, #4]
 909 0008 0023     		movs	r3, #0
 910 000a FB60     		str	r3, [r7, #12]
 911 000c 7B68     		ldr	r3, [r7, #4]
 912 000e 002B     		cmp	r3, #0
 913 0010 17D0     		beq	.L64
 914 0012 FFF7FEFF 		bl	vTaskSuspendAll
 915 0016 124B     		ldr	r3, .L69
 916 0018 1B68     		ldr	r3, [r3]
 917 001a 012B     		cmp	r3, #1
 918 001c 0AD0     		beq	.L65
 919              		.syntax unified
 920              	@ 217 "FreeRTOS/portable/GCC/ARM_CM4F/portmacro.h" 1
 921 001e 4FF05003 		   mov r3, #80                                              
 922 0022 83F31188 	   msr basepri, r3                                         
 923 0026 BFF36F8F 	   isb                                                     
 924 002a BFF34F8F 	   dsb                                                     
 925              	
 926              	@ 0 "" 2
 927              		.thumb
 928              		.syntax unified
 929 002e BB60     		str	r3, [r7, #8]
 930 0030 00BF     		nop
 931              	.L66:
 932 0032 FEE7     		b	.L66
 933              	.L65:
 934 0034 0021     		movs	r1, #0
 935 0036 7868     		ldr	r0, [r7, #4]
 936 0038 FFF7FEFF 		bl	prvAddCurrentTaskToDelayedList
 937 003c FFF7FEFF 		bl	xTaskResumeAll
 938 0040 F860     		str	r0, [r7, #12]
 939              	.L64:
 940 0042 FB68     		ldr	r3, [r7, #12]
 941 0044 002B     		cmp	r3, #0
 942 0046 07D1     		bne	.L68
 943 0048 064B     		ldr	r3, .L69+4
 944 004a 4FF08052 		mov	r2, #268435456
 945 004e 1A60     		str	r2, [r3]
ARM GAS  C:\Users\phamt\AppData\Local\Temp\ccgYGYX4.s 			page 17


 946              		.syntax unified
 947              	@ 2472 "FreeRTOS/tasks.c" 1
 948 0050 BFF34F8F 		dsb
 949              	@ 0 "" 2
 950              	@ 2472 "FreeRTOS/tasks.c" 1
 951 0054 BFF36F8F 		isb
 952              	@ 0 "" 2
 953              		.thumb
 954              		.syntax unified
 955              	.L68:
 956 0058 00BF     		nop
 957 005a 1037     		adds	r7, r7, #16
 958 005c BD46     		mov	sp, r7
 959              		@ sp needed
 960 005e 80BD     		pop	{r7, pc}
 961              	.L70:
 962              		.align	2
 963              	.L69:
 964 0060 00000000 		.word	uxSchedulerSuspended
 965 0064 04ED00E0 		.word	-536810236
 967              		.section	.text.eTaskGetState,"ax",%progbits
 968              		.align	1
 969              		.global	eTaskGetState
 970              		.syntax unified
 971              		.thumb
 972              		.thumb_func
 974              	eTaskGetState:
 975              		@ args = 0, pretend = 0, frame = 40
 976              		@ frame_needed = 1, uses_anonymous_args = 0
 977 0000 80B5     		push	{r7, lr}
 978 0002 8AB0     		sub	sp, sp, #40
 979 0004 00AF     		add	r7, sp, #0
 980 0006 7860     		str	r0, [r7, #4]
 981 0008 7B68     		ldr	r3, [r7, #4]
 982 000a FB61     		str	r3, [r7, #28]
 983 000c FB69     		ldr	r3, [r7, #28]
 984 000e 002B     		cmp	r3, #0
 985 0010 0AD1     		bne	.L72
 986              		.syntax unified
 987              	@ 217 "FreeRTOS/portable/GCC/ARM_CM4F/portmacro.h" 1
 988 0012 4FF05003 		   mov r3, #80                                              
 989 0016 83F31188 	   msr basepri, r3                                         
 990 001a BFF36F8F 	   isb                                                     
 991 001e BFF34F8F 	   dsb                                                     
 992              	
 993              	@ 0 "" 2
 994              		.thumb
 995              		.syntax unified
 996 0022 BB60     		str	r3, [r7, #8]
 997 0024 00BF     		nop
 998              	.L73:
 999 0026 FEE7     		b	.L73
 1000              	.L72:
 1001 0028 324B     		ldr	r3, .L88
 1002 002a 1B68     		ldr	r3, [r3]
 1003 002c FA69     		ldr	r2, [r7, #28]
 1004 002e 9A42     		cmp	r2, r3
ARM GAS  C:\Users\phamt\AppData\Local\Temp\ccgYGYX4.s 			page 18


 1005 0030 03D1     		bne	.L74
 1006 0032 0023     		movs	r3, #0
 1007 0034 87F82730 		strb	r3, [r7, #39]
 1008 0038 56E0     		b	.L75
 1009              	.L74:
 1010 003a FFF7FEFF 		bl	vPortEnterCritical
 1011 003e FB69     		ldr	r3, [r7, #28]
 1012 0040 5B69     		ldr	r3, [r3, #20]
 1013 0042 BB61     		str	r3, [r7, #24]
 1014 0044 FB69     		ldr	r3, [r7, #28]
 1015 0046 9B6A     		ldr	r3, [r3, #40]
 1016 0048 7B61     		str	r3, [r7, #20]
 1017 004a 2B4B     		ldr	r3, .L88+4
 1018 004c 1B68     		ldr	r3, [r3]
 1019 004e 3B61     		str	r3, [r7, #16]
 1020 0050 2A4B     		ldr	r3, .L88+8
 1021 0052 1B68     		ldr	r3, [r3]
 1022 0054 FB60     		str	r3, [r7, #12]
 1023 0056 FFF7FEFF 		bl	vPortExitCritical
 1024 005a 7B69     		ldr	r3, [r7, #20]
 1025 005c 284A     		ldr	r2, .L88+12
 1026 005e 9342     		cmp	r3, r2
 1027 0060 03D1     		bne	.L76
 1028 0062 0123     		movs	r3, #1
 1029 0064 87F82730 		strb	r3, [r7, #39]
 1030 0068 3EE0     		b	.L75
 1031              	.L76:
 1032 006a BA69     		ldr	r2, [r7, #24]
 1033 006c 3B69     		ldr	r3, [r7, #16]
 1034 006e 9A42     		cmp	r2, r3
 1035 0070 03D0     		beq	.L77
 1036 0072 BA69     		ldr	r2, [r7, #24]
 1037 0074 FB68     		ldr	r3, [r7, #12]
 1038 0076 9A42     		cmp	r2, r3
 1039 0078 03D1     		bne	.L78
 1040              	.L77:
 1041 007a 0223     		movs	r3, #2
 1042 007c 87F82730 		strb	r3, [r7, #39]
 1043 0080 32E0     		b	.L75
 1044              	.L78:
 1045 0082 BB69     		ldr	r3, [r7, #24]
 1046 0084 1F4A     		ldr	r2, .L88+16
 1047 0086 9342     		cmp	r3, r2
 1048 0088 20D1     		bne	.L79
 1049 008a FB69     		ldr	r3, [r7, #28]
 1050 008c 9B6A     		ldr	r3, [r3, #40]
 1051 008e 002B     		cmp	r3, #0
 1052 0090 18D1     		bne	.L80
 1053 0092 0323     		movs	r3, #3
 1054 0094 87F82730 		strb	r3, [r7, #39]
 1055 0098 0023     		movs	r3, #0
 1056 009a 3B62     		str	r3, [r7, #32]
 1057 009c 0EE0     		b	.L81
 1058              	.L84:
 1059 009e FA69     		ldr	r2, [r7, #28]
 1060 00a0 3B6A     		ldr	r3, [r7, #32]
 1061 00a2 1344     		add	r3, r3, r2
ARM GAS  C:\Users\phamt\AppData\Local\Temp\ccgYGYX4.s 			page 19


 1062 00a4 5833     		adds	r3, r3, #88
 1063 00a6 1B78     		ldrb	r3, [r3]
 1064 00a8 DBB2     		uxtb	r3, r3
 1065 00aa 012B     		cmp	r3, #1
 1066 00ac 03D1     		bne	.L82
 1067 00ae 0223     		movs	r3, #2
 1068 00b0 87F82730 		strb	r3, [r7, #39]
 1069 00b4 18E0     		b	.L75
 1070              	.L82:
 1071 00b6 3B6A     		ldr	r3, [r7, #32]
 1072 00b8 0133     		adds	r3, r3, #1
 1073 00ba 3B62     		str	r3, [r7, #32]
 1074              	.L81:
 1075 00bc 3B6A     		ldr	r3, [r7, #32]
 1076 00be 002B     		cmp	r3, #0
 1077 00c0 EDDD     		ble	.L84
 1078 00c2 11E0     		b	.L75
 1079              	.L80:
 1080 00c4 0223     		movs	r3, #2
 1081 00c6 87F82730 		strb	r3, [r7, #39]
 1082 00ca 0DE0     		b	.L75
 1083              	.L79:
 1084 00cc BB69     		ldr	r3, [r7, #24]
 1085 00ce 0E4A     		ldr	r2, .L88+20
 1086 00d0 9342     		cmp	r3, r2
 1087 00d2 02D0     		beq	.L85
 1088 00d4 BB69     		ldr	r3, [r7, #24]
 1089 00d6 002B     		cmp	r3, #0
 1090 00d8 03D1     		bne	.L86
 1091              	.L85:
 1092 00da 0423     		movs	r3, #4
 1093 00dc 87F82730 		strb	r3, [r7, #39]
 1094 00e0 02E0     		b	.L75
 1095              	.L86:
 1096 00e2 0123     		movs	r3, #1
 1097 00e4 87F82730 		strb	r3, [r7, #39]
 1098              	.L75:
 1099 00e8 97F82730 		ldrb	r3, [r7, #39]	@ zero_extendqisi2
 1100 00ec 1846     		mov	r0, r3
 1101 00ee 2837     		adds	r7, r7, #40
 1102 00f0 BD46     		mov	sp, r7
 1103              		@ sp needed
 1104 00f2 80BD     		pop	{r7, pc}
 1105              	.L89:
 1106              		.align	2
 1107              	.L88:
 1108 00f4 00000000 		.word	pxCurrentTCB
 1109 00f8 00000000 		.word	pxDelayedTaskList
 1110 00fc 00000000 		.word	pxOverflowDelayedTaskList
 1111 0100 00000000 		.word	xPendingReadyList
 1112 0104 00000000 		.word	xSuspendedTaskList
 1113 0108 00000000 		.word	xTasksWaitingTermination
 1115              		.section	.text.uxTaskPriorityGet,"ax",%progbits
 1116              		.align	1
 1117              		.global	uxTaskPriorityGet
 1118              		.syntax unified
 1119              		.thumb
ARM GAS  C:\Users\phamt\AppData\Local\Temp\ccgYGYX4.s 			page 20


 1120              		.thumb_func
 1122              	uxTaskPriorityGet:
 1123              		@ args = 0, pretend = 0, frame = 16
 1124              		@ frame_needed = 1, uses_anonymous_args = 0
 1125 0000 80B5     		push	{r7, lr}
 1126 0002 84B0     		sub	sp, sp, #16
 1127 0004 00AF     		add	r7, sp, #0
 1128 0006 7860     		str	r0, [r7, #4]
 1129 0008 FFF7FEFF 		bl	vPortEnterCritical
 1130 000c 7B68     		ldr	r3, [r7, #4]
 1131 000e 002B     		cmp	r3, #0
 1132 0010 02D1     		bne	.L91
 1133 0012 074B     		ldr	r3, .L94
 1134 0014 1B68     		ldr	r3, [r3]
 1135 0016 00E0     		b	.L92
 1136              	.L91:
 1137 0018 7B68     		ldr	r3, [r7, #4]
 1138              	.L92:
 1139 001a FB60     		str	r3, [r7, #12]
 1140 001c FB68     		ldr	r3, [r7, #12]
 1141 001e DB6A     		ldr	r3, [r3, #44]
 1142 0020 BB60     		str	r3, [r7, #8]
 1143 0022 FFF7FEFF 		bl	vPortExitCritical
 1144 0026 BB68     		ldr	r3, [r7, #8]
 1145 0028 1846     		mov	r0, r3
 1146 002a 1037     		adds	r7, r7, #16
 1147 002c BD46     		mov	sp, r7
 1148              		@ sp needed
 1149 002e 80BD     		pop	{r7, pc}
 1150              	.L95:
 1151              		.align	2
 1152              	.L94:
 1153 0030 00000000 		.word	pxCurrentTCB
 1155              		.section	.text.uxTaskPriorityGetFromISR,"ax",%progbits
 1156              		.align	1
 1157              		.global	uxTaskPriorityGetFromISR
 1158              		.syntax unified
 1159              		.thumb
 1160              		.thumb_func
 1162              	uxTaskPriorityGetFromISR:
 1163              		@ args = 0, pretend = 0, frame = 32
 1164              		@ frame_needed = 1, uses_anonymous_args = 0
 1165 0000 80B5     		push	{r7, lr}
 1166 0002 88B0     		sub	sp, sp, #32
 1167 0004 00AF     		add	r7, sp, #0
 1168 0006 7860     		str	r0, [r7, #4]
 1169 0008 FFF7FEFF 		bl	vPortValidateInterruptPriority
 1170              		.syntax unified
 1171              	@ 233 "FreeRTOS/portable/GCC/ARM_CM4F/portmacro.h" 1
 1172 000c EFF31182 		   mrs r2, basepri                                         
 1173 0010 4FF05003 	   mov r3, #80                                              
 1174 0014 83F31188 	   msr basepri, r3                                         
 1175 0018 BFF36F8F 	   isb                                                     
 1176 001c BFF34F8F 	   dsb                                                     
 1177              	
 1178              	@ 0 "" 2
 1179              		.thumb
ARM GAS  C:\Users\phamt\AppData\Local\Temp\ccgYGYX4.s 			page 21


 1180              		.syntax unified
 1181 0020 3A61     		str	r2, [r7, #16]
 1182 0022 FB60     		str	r3, [r7, #12]
 1183 0024 3B69     		ldr	r3, [r7, #16]
 1184 0026 FB61     		str	r3, [r7, #28]
 1185 0028 7B68     		ldr	r3, [r7, #4]
 1186 002a 002B     		cmp	r3, #0
 1187 002c 02D1     		bne	.L98
 1188 002e 094B     		ldr	r3, .L101
 1189 0030 1B68     		ldr	r3, [r3]
 1190 0032 00E0     		b	.L99
 1191              	.L98:
 1192 0034 7B68     		ldr	r3, [r7, #4]
 1193              	.L99:
 1194 0036 BB61     		str	r3, [r7, #24]
 1195 0038 BB69     		ldr	r3, [r7, #24]
 1196 003a DB6A     		ldr	r3, [r3, #44]
 1197 003c 7B61     		str	r3, [r7, #20]
 1198 003e FB69     		ldr	r3, [r7, #28]
 1199 0040 BB60     		str	r3, [r7, #8]
 1200 0042 BB68     		ldr	r3, [r7, #8]
 1201              		.syntax unified
 1202              	@ 251 "FreeRTOS/portable/GCC/ARM_CM4F/portmacro.h" 1
 1203 0044 83F31188 		   msr basepri, r3 
 1204              	@ 0 "" 2
 1205              		.thumb
 1206              		.syntax unified
 1207 0048 00BF     		nop
 1208 004a 7B69     		ldr	r3, [r7, #20]
 1209 004c 1846     		mov	r0, r3
 1210 004e 2037     		adds	r7, r7, #32
 1211 0050 BD46     		mov	sp, r7
 1212              		@ sp needed
 1213 0052 80BD     		pop	{r7, pc}
 1214              	.L102:
 1215              		.align	2
 1216              	.L101:
 1217 0054 00000000 		.word	pxCurrentTCB
 1219              		.section	.text.uxTaskBasePriorityGet,"ax",%progbits
 1220              		.align	1
 1221              		.global	uxTaskBasePriorityGet
 1222              		.syntax unified
 1223              		.thumb
 1224              		.thumb_func
 1226              	uxTaskBasePriorityGet:
 1227              		@ args = 0, pretend = 0, frame = 16
 1228              		@ frame_needed = 1, uses_anonymous_args = 0
 1229 0000 80B5     		push	{r7, lr}
 1230 0002 84B0     		sub	sp, sp, #16
 1231 0004 00AF     		add	r7, sp, #0
 1232 0006 7860     		str	r0, [r7, #4]
 1233 0008 FFF7FEFF 		bl	vPortEnterCritical
 1234 000c 7B68     		ldr	r3, [r7, #4]
 1235 000e 002B     		cmp	r3, #0
 1236 0010 02D1     		bne	.L104
 1237 0012 074B     		ldr	r3, .L107
 1238 0014 1B68     		ldr	r3, [r3]
ARM GAS  C:\Users\phamt\AppData\Local\Temp\ccgYGYX4.s 			page 22


 1239 0016 00E0     		b	.L105
 1240              	.L104:
 1241 0018 7B68     		ldr	r3, [r7, #4]
 1242              	.L105:
 1243 001a FB60     		str	r3, [r7, #12]
 1244 001c FB68     		ldr	r3, [r7, #12]
 1245 001e DB6C     		ldr	r3, [r3, #76]
 1246 0020 BB60     		str	r3, [r7, #8]
 1247 0022 FFF7FEFF 		bl	vPortExitCritical
 1248 0026 BB68     		ldr	r3, [r7, #8]
 1249 0028 1846     		mov	r0, r3
 1250 002a 1037     		adds	r7, r7, #16
 1251 002c BD46     		mov	sp, r7
 1252              		@ sp needed
 1253 002e 80BD     		pop	{r7, pc}
 1254              	.L108:
 1255              		.align	2
 1256              	.L107:
 1257 0030 00000000 		.word	pxCurrentTCB
 1259              		.section	.text.uxTaskBasePriorityGetFromISR,"ax",%progbits
 1260              		.align	1
 1261              		.global	uxTaskBasePriorityGetFromISR
 1262              		.syntax unified
 1263              		.thumb
 1264              		.thumb_func
 1266              	uxTaskBasePriorityGetFromISR:
 1267              		@ args = 0, pretend = 0, frame = 32
 1268              		@ frame_needed = 1, uses_anonymous_args = 0
 1269 0000 80B5     		push	{r7, lr}
 1270 0002 88B0     		sub	sp, sp, #32
 1271 0004 00AF     		add	r7, sp, #0
 1272 0006 7860     		str	r0, [r7, #4]
 1273 0008 FFF7FEFF 		bl	vPortValidateInterruptPriority
 1274              		.syntax unified
 1275              	@ 233 "FreeRTOS/portable/GCC/ARM_CM4F/portmacro.h" 1
 1276 000c EFF31182 		   mrs r2, basepri                                         
 1277 0010 4FF05003 	   mov r3, #80                                              
 1278 0014 83F31188 	   msr basepri, r3                                         
 1279 0018 BFF36F8F 	   isb                                                     
 1280 001c BFF34F8F 	   dsb                                                     
 1281              	
 1282              	@ 0 "" 2
 1283              		.thumb
 1284              		.syntax unified
 1285 0020 3A61     		str	r2, [r7, #16]
 1286 0022 FB60     		str	r3, [r7, #12]
 1287 0024 3B69     		ldr	r3, [r7, #16]
 1288 0026 FB61     		str	r3, [r7, #28]
 1289 0028 7B68     		ldr	r3, [r7, #4]
 1290 002a 002B     		cmp	r3, #0
 1291 002c 02D1     		bne	.L111
 1292 002e 094B     		ldr	r3, .L114
 1293 0030 1B68     		ldr	r3, [r3]
 1294 0032 00E0     		b	.L112
 1295              	.L111:
 1296 0034 7B68     		ldr	r3, [r7, #4]
 1297              	.L112:
ARM GAS  C:\Users\phamt\AppData\Local\Temp\ccgYGYX4.s 			page 23


 1298 0036 BB61     		str	r3, [r7, #24]
 1299 0038 BB69     		ldr	r3, [r7, #24]
 1300 003a DB6C     		ldr	r3, [r3, #76]
 1301 003c 7B61     		str	r3, [r7, #20]
 1302 003e FB69     		ldr	r3, [r7, #28]
 1303 0040 BB60     		str	r3, [r7, #8]
 1304 0042 BB68     		ldr	r3, [r7, #8]
 1305              		.syntax unified
 1306              	@ 251 "FreeRTOS/portable/GCC/ARM_CM4F/portmacro.h" 1
 1307 0044 83F31188 		   msr basepri, r3 
 1308              	@ 0 "" 2
 1309              		.thumb
 1310              		.syntax unified
 1311 0048 00BF     		nop
 1312 004a 7B69     		ldr	r3, [r7, #20]
 1313 004c 1846     		mov	r0, r3
 1314 004e 2037     		adds	r7, r7, #32
 1315 0050 BD46     		mov	sp, r7
 1316              		@ sp needed
 1317 0052 80BD     		pop	{r7, pc}
 1318              	.L115:
 1319              		.align	2
 1320              	.L114:
 1321 0054 00000000 		.word	pxCurrentTCB
 1323              		.section	.text.vTaskPrioritySet,"ax",%progbits
 1324              		.align	1
 1325              		.global	vTaskPrioritySet
 1326              		.syntax unified
 1327              		.thumb
 1328              		.thumb_func
 1330              	vTaskPrioritySet:
 1331              		@ args = 0, pretend = 0, frame = 32
 1332              		@ frame_needed = 1, uses_anonymous_args = 0
 1333 0000 80B5     		push	{r7, lr}
 1334 0002 88B0     		sub	sp, sp, #32
 1335 0004 00AF     		add	r7, sp, #0
 1336 0006 7860     		str	r0, [r7, #4]
 1337 0008 3960     		str	r1, [r7]
 1338 000a 0023     		movs	r3, #0
 1339 000c FB61     		str	r3, [r7, #28]
 1340 000e 3B68     		ldr	r3, [r7]
 1341 0010 372B     		cmp	r3, #55
 1342 0012 0AD9     		bls	.L117
 1343              		.syntax unified
 1344              	@ 217 "FreeRTOS/portable/GCC/ARM_CM4F/portmacro.h" 1
 1345 0014 4FF05003 		   mov r3, #80                                              
 1346 0018 83F31188 	   msr basepri, r3                                         
 1347 001c BFF36F8F 	   isb                                                     
 1348 0020 BFF34F8F 	   dsb                                                     
 1349              	
 1350              	@ 0 "" 2
 1351              		.thumb
 1352              		.syntax unified
 1353 0024 BB60     		str	r3, [r7, #8]
 1354 0026 00BF     		nop
 1355              	.L118:
 1356 0028 FEE7     		b	.L118
ARM GAS  C:\Users\phamt\AppData\Local\Temp\ccgYGYX4.s 			page 24


 1357              	.L117:
 1358 002a 3B68     		ldr	r3, [r7]
 1359 002c 372B     		cmp	r3, #55
 1360 002e 01D9     		bls	.L119
 1361 0030 3723     		movs	r3, #55
 1362 0032 3B60     		str	r3, [r7]
 1363              	.L119:
 1364 0034 FFF7FEFF 		bl	vPortEnterCritical
 1365 0038 7B68     		ldr	r3, [r7, #4]
 1366 003a 002B     		cmp	r3, #0
 1367 003c 02D1     		bne	.L120
 1368 003e 534B     		ldr	r3, .L130
 1369 0040 1B68     		ldr	r3, [r3]
 1370 0042 00E0     		b	.L121
 1371              	.L120:
 1372 0044 7B68     		ldr	r3, [r7, #4]
 1373              	.L121:
 1374 0046 BB61     		str	r3, [r7, #24]
 1375 0048 BB69     		ldr	r3, [r7, #24]
 1376 004a DB6C     		ldr	r3, [r3, #76]
 1377 004c 7B61     		str	r3, [r7, #20]
 1378 004e 7A69     		ldr	r2, [r7, #20]
 1379 0050 3B68     		ldr	r3, [r7]
 1380 0052 9A42     		cmp	r2, r3
 1381 0054 00F09380 		beq	.L122
 1382 0058 3A68     		ldr	r2, [r7]
 1383 005a 7B69     		ldr	r3, [r7, #20]
 1384 005c 9A42     		cmp	r2, r3
 1385 005e 0DD9     		bls	.L123
 1386 0060 4A4B     		ldr	r3, .L130
 1387 0062 1B68     		ldr	r3, [r3]
 1388 0064 BA69     		ldr	r2, [r7, #24]
 1389 0066 9A42     		cmp	r2, r3
 1390 0068 0FD0     		beq	.L124
 1391 006a 484B     		ldr	r3, .L130
 1392 006c 1B68     		ldr	r3, [r3]
 1393 006e DB6A     		ldr	r3, [r3, #44]
 1394 0070 3A68     		ldr	r2, [r7]
 1395 0072 9A42     		cmp	r2, r3
 1396 0074 09D9     		bls	.L124
 1397 0076 0123     		movs	r3, #1
 1398 0078 FB61     		str	r3, [r7, #28]
 1399 007a 06E0     		b	.L124
 1400              	.L123:
 1401 007c 434B     		ldr	r3, .L130
 1402 007e 1B68     		ldr	r3, [r3]
 1403 0080 BA69     		ldr	r2, [r7, #24]
 1404 0082 9A42     		cmp	r2, r3
 1405 0084 01D1     		bne	.L124
 1406 0086 0123     		movs	r3, #1
 1407 0088 FB61     		str	r3, [r7, #28]
 1408              	.L124:
 1409 008a BB69     		ldr	r3, [r7, #24]
 1410 008c DB6A     		ldr	r3, [r3, #44]
 1411 008e 3B61     		str	r3, [r7, #16]
 1412 0090 BB69     		ldr	r3, [r7, #24]
 1413 0092 DA6C     		ldr	r2, [r3, #76]
ARM GAS  C:\Users\phamt\AppData\Local\Temp\ccgYGYX4.s 			page 25


 1414 0094 BB69     		ldr	r3, [r7, #24]
 1415 0096 DB6A     		ldr	r3, [r3, #44]
 1416 0098 9A42     		cmp	r2, r3
 1417 009a 04D0     		beq	.L125
 1418 009c BB69     		ldr	r3, [r7, #24]
 1419 009e DB6A     		ldr	r3, [r3, #44]
 1420 00a0 3A68     		ldr	r2, [r7]
 1421 00a2 9A42     		cmp	r2, r3
 1422 00a4 02D9     		bls	.L126
 1423              	.L125:
 1424 00a6 BB69     		ldr	r3, [r7, #24]
 1425 00a8 3A68     		ldr	r2, [r7]
 1426 00aa DA62     		str	r2, [r3, #44]
 1427              	.L126:
 1428 00ac BB69     		ldr	r3, [r7, #24]
 1429 00ae 3A68     		ldr	r2, [r7]
 1430 00b0 DA64     		str	r2, [r3, #76]
 1431 00b2 BB69     		ldr	r3, [r7, #24]
 1432 00b4 9B69     		ldr	r3, [r3, #24]
 1433 00b6 002B     		cmp	r3, #0
 1434 00b8 04DB     		blt	.L127
 1435 00ba 3B68     		ldr	r3, [r7]
 1436 00bc C3F13802 		rsb	r2, r3, #56
 1437 00c0 BB69     		ldr	r3, [r7, #24]
 1438 00c2 9A61     		str	r2, [r3, #24]
 1439              	.L127:
 1440 00c4 BB69     		ldr	r3, [r7, #24]
 1441 00c6 5969     		ldr	r1, [r3, #20]
 1442 00c8 3A69     		ldr	r2, [r7, #16]
 1443 00ca 1346     		mov	r3, r2
 1444 00cc 9B00     		lsls	r3, r3, #2
 1445 00ce 1344     		add	r3, r3, r2
 1446 00d0 9B00     		lsls	r3, r3, #2
 1447 00d2 2F4A     		ldr	r2, .L130+4
 1448 00d4 1344     		add	r3, r3, r2
 1449 00d6 9942     		cmp	r1, r3
 1450 00d8 46D1     		bne	.L128
 1451 00da BB69     		ldr	r3, [r7, #24]
 1452 00dc 0433     		adds	r3, r3, #4
 1453 00de 1846     		mov	r0, r3
 1454 00e0 FFF7FEFF 		bl	uxListRemove
 1455 00e4 BB69     		ldr	r3, [r7, #24]
 1456 00e6 DA6A     		ldr	r2, [r3, #44]
 1457 00e8 2A4B     		ldr	r3, .L130+8
 1458 00ea 1B68     		ldr	r3, [r3]
 1459 00ec 9A42     		cmp	r2, r3
 1460 00ee 03D9     		bls	.L129
 1461 00f0 BB69     		ldr	r3, [r7, #24]
 1462 00f2 DB6A     		ldr	r3, [r3, #44]
 1463 00f4 274A     		ldr	r2, .L130+8
 1464 00f6 1360     		str	r3, [r2]
 1465              	.L129:
 1466 00f8 BB69     		ldr	r3, [r7, #24]
 1467 00fa DA6A     		ldr	r2, [r3, #44]
 1468 00fc 2449     		ldr	r1, .L130+4
 1469 00fe 1346     		mov	r3, r2
 1470 0100 9B00     		lsls	r3, r3, #2
ARM GAS  C:\Users\phamt\AppData\Local\Temp\ccgYGYX4.s 			page 26


 1471 0102 1344     		add	r3, r3, r2
 1472 0104 9B00     		lsls	r3, r3, #2
 1473 0106 0B44     		add	r3, r3, r1
 1474 0108 0433     		adds	r3, r3, #4
 1475 010a 1B68     		ldr	r3, [r3]
 1476 010c FB60     		str	r3, [r7, #12]
 1477 010e BB69     		ldr	r3, [r7, #24]
 1478 0110 FA68     		ldr	r2, [r7, #12]
 1479 0112 9A60     		str	r2, [r3, #8]
 1480 0114 FB68     		ldr	r3, [r7, #12]
 1481 0116 9A68     		ldr	r2, [r3, #8]
 1482 0118 BB69     		ldr	r3, [r7, #24]
 1483 011a DA60     		str	r2, [r3, #12]
 1484 011c FB68     		ldr	r3, [r7, #12]
 1485 011e 9B68     		ldr	r3, [r3, #8]
 1486 0120 BA69     		ldr	r2, [r7, #24]
 1487 0122 0432     		adds	r2, r2, #4
 1488 0124 5A60     		str	r2, [r3, #4]
 1489 0126 BB69     		ldr	r3, [r7, #24]
 1490 0128 1A1D     		adds	r2, r3, #4
 1491 012a FB68     		ldr	r3, [r7, #12]
 1492 012c 9A60     		str	r2, [r3, #8]
 1493 012e BB69     		ldr	r3, [r7, #24]
 1494 0130 DA6A     		ldr	r2, [r3, #44]
 1495 0132 1346     		mov	r3, r2
 1496 0134 9B00     		lsls	r3, r3, #2
 1497 0136 1344     		add	r3, r3, r2
 1498 0138 9B00     		lsls	r3, r3, #2
 1499 013a 154A     		ldr	r2, .L130+4
 1500 013c 1A44     		add	r2, r2, r3
 1501 013e BB69     		ldr	r3, [r7, #24]
 1502 0140 5A61     		str	r2, [r3, #20]
 1503 0142 BB69     		ldr	r3, [r7, #24]
 1504 0144 DA6A     		ldr	r2, [r3, #44]
 1505 0146 1249     		ldr	r1, .L130+4
 1506 0148 1346     		mov	r3, r2
 1507 014a 9B00     		lsls	r3, r3, #2
 1508 014c 1344     		add	r3, r3, r2
 1509 014e 9B00     		lsls	r3, r3, #2
 1510 0150 0B44     		add	r3, r3, r1
 1511 0152 1B68     		ldr	r3, [r3]
 1512 0154 BA69     		ldr	r2, [r7, #24]
 1513 0156 D26A     		ldr	r2, [r2, #44]
 1514 0158 591C     		adds	r1, r3, #1
 1515 015a 0D48     		ldr	r0, .L130+4
 1516 015c 1346     		mov	r3, r2
 1517 015e 9B00     		lsls	r3, r3, #2
 1518 0160 1344     		add	r3, r3, r2
 1519 0162 9B00     		lsls	r3, r3, #2
 1520 0164 0344     		add	r3, r3, r0
 1521 0166 1960     		str	r1, [r3]
 1522              	.L128:
 1523 0168 FB69     		ldr	r3, [r7, #28]
 1524 016a 002B     		cmp	r3, #0
 1525 016c 07D0     		beq	.L122
 1526 016e 0A4B     		ldr	r3, .L130+12
 1527 0170 4FF08052 		mov	r2, #268435456
ARM GAS  C:\Users\phamt\AppData\Local\Temp\ccgYGYX4.s 			page 27


 1528 0174 1A60     		str	r2, [r3]
 1529              		.syntax unified
 1530              	@ 2947 "FreeRTOS/tasks.c" 1
 1531 0176 BFF34F8F 		dsb
 1532              	@ 0 "" 2
 1533              	@ 2947 "FreeRTOS/tasks.c" 1
 1534 017a BFF36F8F 		isb
 1535              	@ 0 "" 2
 1536              		.thumb
 1537              		.syntax unified
 1538              	.L122:
 1539 017e FFF7FEFF 		bl	vPortExitCritical
 1540 0182 00BF     		nop
 1541 0184 2037     		adds	r7, r7, #32
 1542 0186 BD46     		mov	sp, r7
 1543              		@ sp needed
 1544 0188 80BD     		pop	{r7, pc}
 1545              	.L131:
 1546 018a 00BF     		.align	2
 1547              	.L130:
 1548 018c 00000000 		.word	pxCurrentTCB
 1549 0190 00000000 		.word	pxReadyTasksLists
 1550 0194 00000000 		.word	uxTopReadyPriority
 1551 0198 04ED00E0 		.word	-536810236
 1553              		.section	.text.vTaskSuspend,"ax",%progbits
 1554              		.align	1
 1555              		.global	vTaskSuspend
 1556              		.syntax unified
 1557              		.thumb
 1558              		.thumb_func
 1560              	vTaskSuspend:
 1561              		@ args = 0, pretend = 0, frame = 24
 1562              		@ frame_needed = 1, uses_anonymous_args = 0
 1563 0000 80B5     		push	{r7, lr}
 1564 0002 86B0     		sub	sp, sp, #24
 1565 0004 00AF     		add	r7, sp, #0
 1566 0006 7860     		str	r0, [r7, #4]
 1567 0008 FFF7FEFF 		bl	vPortEnterCritical
 1568 000c 7B68     		ldr	r3, [r7, #4]
 1569 000e 002B     		cmp	r3, #0
 1570 0010 02D1     		bne	.L133
 1571 0012 374B     		ldr	r3, .L146
 1572 0014 1B68     		ldr	r3, [r3]
 1573 0016 00E0     		b	.L134
 1574              	.L133:
 1575 0018 7B68     		ldr	r3, [r7, #4]
 1576              	.L134:
 1577 001a 3B61     		str	r3, [r7, #16]
 1578 001c 3B69     		ldr	r3, [r7, #16]
 1579 001e 0433     		adds	r3, r3, #4
 1580 0020 1846     		mov	r0, r3
 1581 0022 FFF7FEFF 		bl	uxListRemove
 1582 0026 3B69     		ldr	r3, [r7, #16]
 1583 0028 9B6A     		ldr	r3, [r3, #40]
 1584 002a 002B     		cmp	r3, #0
 1585 002c 04D0     		beq	.L135
 1586 002e 3B69     		ldr	r3, [r7, #16]
ARM GAS  C:\Users\phamt\AppData\Local\Temp\ccgYGYX4.s 			page 28


 1587 0030 1833     		adds	r3, r3, #24
 1588 0032 1846     		mov	r0, r3
 1589 0034 FFF7FEFF 		bl	uxListRemove
 1590              	.L135:
 1591 0038 3B69     		ldr	r3, [r7, #16]
 1592 003a 0433     		adds	r3, r3, #4
 1593 003c 1946     		mov	r1, r3
 1594 003e 2D48     		ldr	r0, .L146+4
 1595 0040 FFF7FEFF 		bl	vListInsertEnd
 1596 0044 0023     		movs	r3, #0
 1597 0046 7B61     		str	r3, [r7, #20]
 1598 0048 10E0     		b	.L136
 1599              	.L138:
 1600 004a 3A69     		ldr	r2, [r7, #16]
 1601 004c 7B69     		ldr	r3, [r7, #20]
 1602 004e 1344     		add	r3, r3, r2
 1603 0050 5833     		adds	r3, r3, #88
 1604 0052 1B78     		ldrb	r3, [r3]
 1605 0054 DBB2     		uxtb	r3, r3
 1606 0056 012B     		cmp	r3, #1
 1607 0058 05D1     		bne	.L137
 1608 005a 3A69     		ldr	r2, [r7, #16]
 1609 005c 7B69     		ldr	r3, [r7, #20]
 1610 005e 1344     		add	r3, r3, r2
 1611 0060 5833     		adds	r3, r3, #88
 1612 0062 0022     		movs	r2, #0
 1613 0064 1A70     		strb	r2, [r3]
 1614              	.L137:
 1615 0066 7B69     		ldr	r3, [r7, #20]
 1616 0068 0133     		adds	r3, r3, #1
 1617 006a 7B61     		str	r3, [r7, #20]
 1618              	.L136:
 1619 006c 7B69     		ldr	r3, [r7, #20]
 1620 006e 002B     		cmp	r3, #0
 1621 0070 EBDD     		ble	.L138
 1622 0072 FFF7FEFF 		bl	vPortExitCritical
 1623 0076 204B     		ldr	r3, .L146+8
 1624 0078 1B68     		ldr	r3, [r3]
 1625 007a 002B     		cmp	r3, #0
 1626 007c 05D0     		beq	.L139
 1627 007e FFF7FEFF 		bl	vPortEnterCritical
 1628 0082 FFF7FEFF 		bl	prvResetNextTaskUnblockTime
 1629 0086 FFF7FEFF 		bl	vPortExitCritical
 1630              	.L139:
 1631 008a 194B     		ldr	r3, .L146
 1632 008c 1B68     		ldr	r3, [r3]
 1633 008e 3A69     		ldr	r2, [r7, #16]
 1634 0090 9A42     		cmp	r2, r3
 1635 0092 29D1     		bne	.L145
 1636 0094 184B     		ldr	r3, .L146+8
 1637 0096 1B68     		ldr	r3, [r3]
 1638 0098 002B     		cmp	r3, #0
 1639 009a 17D0     		beq	.L141
 1640 009c 174B     		ldr	r3, .L146+12
 1641 009e 1B68     		ldr	r3, [r3]
 1642 00a0 002B     		cmp	r3, #0
 1643 00a2 0AD0     		beq	.L142
ARM GAS  C:\Users\phamt\AppData\Local\Temp\ccgYGYX4.s 			page 29


 1644              		.syntax unified
 1645              	@ 217 "FreeRTOS/portable/GCC/ARM_CM4F/portmacro.h" 1
 1646 00a4 4FF05003 		   mov r3, #80                                              
 1647 00a8 83F31188 	   msr basepri, r3                                         
 1648 00ac BFF36F8F 	   isb                                                     
 1649 00b0 BFF34F8F 	   dsb                                                     
 1650              	
 1651              	@ 0 "" 2
 1652              		.thumb
 1653              		.syntax unified
 1654 00b4 BB60     		str	r3, [r7, #8]
 1655 00b6 00BF     		nop
 1656              	.L143:
 1657 00b8 FEE7     		b	.L143
 1658              	.L142:
 1659 00ba 114B     		ldr	r3, .L146+16
 1660 00bc 4FF08052 		mov	r2, #268435456
 1661 00c0 1A60     		str	r2, [r3]
 1662              		.syntax unified
 1663              	@ 3234 "FreeRTOS/tasks.c" 1
 1664 00c2 BFF34F8F 		dsb
 1665              	@ 0 "" 2
 1666              	@ 3234 "FreeRTOS/tasks.c" 1
 1667 00c6 BFF36F8F 		isb
 1668              	@ 0 "" 2
 1669              		.thumb
 1670              		.syntax unified
 1671 00ca 0DE0     		b	.L145
 1672              	.L141:
 1673 00cc 094B     		ldr	r3, .L146+4
 1674 00ce 1B68     		ldr	r3, [r3]
 1675 00d0 FB60     		str	r3, [r7, #12]
 1676 00d2 0C4B     		ldr	r3, .L146+20
 1677 00d4 1B68     		ldr	r3, [r3]
 1678 00d6 FA68     		ldr	r2, [r7, #12]
 1679 00d8 9A42     		cmp	r2, r3
 1680 00da 03D1     		bne	.L144
 1681 00dc 044B     		ldr	r3, .L146
 1682 00de 0022     		movs	r2, #0
 1683 00e0 1A60     		str	r2, [r3]
 1684 00e2 01E0     		b	.L145
 1685              	.L144:
 1686 00e4 FFF7FEFF 		bl	vTaskSwitchContext
 1687              	.L145:
 1688 00e8 00BF     		nop
 1689 00ea 1837     		adds	r7, r7, #24
 1690 00ec BD46     		mov	sp, r7
 1691              		@ sp needed
 1692 00ee 80BD     		pop	{r7, pc}
 1693              	.L147:
 1694              		.align	2
 1695              	.L146:
 1696 00f0 00000000 		.word	pxCurrentTCB
 1697 00f4 00000000 		.word	xSuspendedTaskList
 1698 00f8 00000000 		.word	xSchedulerRunning
 1699 00fc 00000000 		.word	uxSchedulerSuspended
 1700 0100 04ED00E0 		.word	-536810236
ARM GAS  C:\Users\phamt\AppData\Local\Temp\ccgYGYX4.s 			page 30


 1701 0104 00000000 		.word	uxCurrentNumberOfTasks
 1703              		.section	.text.prvTaskIsTaskSuspended,"ax",%progbits
 1704              		.align	1
 1705              		.syntax unified
 1706              		.thumb
 1707              		.thumb_func
 1709              	prvTaskIsTaskSuspended:
 1710              		@ args = 0, pretend = 0, frame = 24
 1711              		@ frame_needed = 1, uses_anonymous_args = 0
 1712              		@ link register save eliminated.
 1713 0000 80B4     		push	{r7}
 1714 0002 87B0     		sub	sp, sp, #28
 1715 0004 00AF     		add	r7, sp, #0
 1716 0006 7860     		str	r0, [r7, #4]
 1717 0008 0023     		movs	r3, #0
 1718 000a 7B61     		str	r3, [r7, #20]
 1719 000c 7B68     		ldr	r3, [r7, #4]
 1720 000e FB60     		str	r3, [r7, #12]
 1721 0010 7B68     		ldr	r3, [r7, #4]
 1722 0012 002B     		cmp	r3, #0
 1723 0014 0AD1     		bne	.L149
 1724              		.syntax unified
 1725              	@ 217 "FreeRTOS/portable/GCC/ARM_CM4F/portmacro.h" 1
 1726 0016 4FF05003 		   mov r3, #80                                              
 1727 001a 83F31188 	   msr basepri, r3                                         
 1728 001e BFF36F8F 	   isb                                                     
 1729 0022 BFF34F8F 	   dsb                                                     
 1730              	
 1731              	@ 0 "" 2
 1732              		.thumb
 1733              		.syntax unified
 1734 0026 BB60     		str	r3, [r7, #8]
 1735 0028 00BF     		nop
 1736              	.L150:
 1737 002a FEE7     		b	.L150
 1738              	.L149:
 1739 002c FB68     		ldr	r3, [r7, #12]
 1740 002e 5B69     		ldr	r3, [r3, #20]
 1741 0030 144A     		ldr	r2, .L157
 1742 0032 9342     		cmp	r3, r2
 1743 0034 1ED1     		bne	.L151
 1744 0036 FB68     		ldr	r3, [r7, #12]
 1745 0038 9B6A     		ldr	r3, [r3, #40]
 1746 003a 134A     		ldr	r2, .L157+4
 1747 003c 9342     		cmp	r3, r2
 1748 003e 19D0     		beq	.L151
 1749 0040 FB68     		ldr	r3, [r7, #12]
 1750 0042 9B6A     		ldr	r3, [r3, #40]
 1751 0044 002B     		cmp	r3, #0
 1752 0046 15D1     		bne	.L151
 1753 0048 0123     		movs	r3, #1
 1754 004a 7B61     		str	r3, [r7, #20]
 1755 004c 0023     		movs	r3, #0
 1756 004e 3B61     		str	r3, [r7, #16]
 1757 0050 0DE0     		b	.L152
 1758              	.L155:
 1759 0052 FA68     		ldr	r2, [r7, #12]
ARM GAS  C:\Users\phamt\AppData\Local\Temp\ccgYGYX4.s 			page 31


 1760 0054 3B69     		ldr	r3, [r7, #16]
 1761 0056 1344     		add	r3, r3, r2
 1762 0058 5833     		adds	r3, r3, #88
 1763 005a 1B78     		ldrb	r3, [r3]
 1764 005c DBB2     		uxtb	r3, r3
 1765 005e 012B     		cmp	r3, #1
 1766 0060 02D1     		bne	.L153
 1767 0062 0023     		movs	r3, #0
 1768 0064 7B61     		str	r3, [r7, #20]
 1769 0066 05E0     		b	.L151
 1770              	.L153:
 1771 0068 3B69     		ldr	r3, [r7, #16]
 1772 006a 0133     		adds	r3, r3, #1
 1773 006c 3B61     		str	r3, [r7, #16]
 1774              	.L152:
 1775 006e 3B69     		ldr	r3, [r7, #16]
 1776 0070 002B     		cmp	r3, #0
 1777 0072 EEDD     		ble	.L155
 1778              	.L151:
 1779 0074 7B69     		ldr	r3, [r7, #20]
 1780 0076 1846     		mov	r0, r3
 1781 0078 1C37     		adds	r7, r7, #28
 1782 007a BD46     		mov	sp, r7
 1783              		@ sp needed
 1784 007c 5DF8047B 		ldr	r7, [sp], #4
 1785 0080 7047     		bx	lr
 1786              	.L158:
 1787 0082 00BF     		.align	2
 1788              	.L157:
 1789 0084 00000000 		.word	xSuspendedTaskList
 1790 0088 00000000 		.word	xPendingReadyList
 1792              		.section	.text.vTaskResume,"ax",%progbits
 1793              		.align	1
 1794              		.global	vTaskResume
 1795              		.syntax unified
 1796              		.thumb
 1797              		.thumb_func
 1799              	vTaskResume:
 1800              		@ args = 0, pretend = 0, frame = 24
 1801              		@ frame_needed = 1, uses_anonymous_args = 0
 1802 0000 80B5     		push	{r7, lr}
 1803 0002 86B0     		sub	sp, sp, #24
 1804 0004 00AF     		add	r7, sp, #0
 1805 0006 7860     		str	r0, [r7, #4]
 1806 0008 7B68     		ldr	r3, [r7, #4]
 1807 000a 7B61     		str	r3, [r7, #20]
 1808 000c 7B68     		ldr	r3, [r7, #4]
 1809 000e 002B     		cmp	r3, #0
 1810 0010 0AD1     		bne	.L160
 1811              		.syntax unified
 1812              	@ 217 "FreeRTOS/portable/GCC/ARM_CM4F/portmacro.h" 1
 1813 0012 4FF05003 		   mov r3, #80                                              
 1814 0016 83F31188 	   msr basepri, r3                                         
 1815 001a BFF36F8F 	   isb                                                     
 1816 001e BFF34F8F 	   dsb                                                     
 1817              	
 1818              	@ 0 "" 2
ARM GAS  C:\Users\phamt\AppData\Local\Temp\ccgYGYX4.s 			page 32


 1819              		.thumb
 1820              		.syntax unified
 1821 0022 FB60     		str	r3, [r7, #12]
 1822 0024 00BF     		nop
 1823              	.L161:
 1824 0026 FEE7     		b	.L161
 1825              	.L160:
 1826 0028 354B     		ldr	r3, .L166
 1827 002a 1B68     		ldr	r3, [r3]
 1828 002c 7A69     		ldr	r2, [r7, #20]
 1829 002e 9A42     		cmp	r2, r3
 1830 0030 62D0     		beq	.L165
 1831 0032 7B69     		ldr	r3, [r7, #20]
 1832 0034 002B     		cmp	r3, #0
 1833 0036 5FD0     		beq	.L165
 1834 0038 FFF7FEFF 		bl	vPortEnterCritical
 1835 003c 7869     		ldr	r0, [r7, #20]
 1836 003e FFF7FEFF 		bl	prvTaskIsTaskSuspended
 1837 0042 0346     		mov	r3, r0
 1838 0044 002B     		cmp	r3, #0
 1839 0046 55D0     		beq	.L163
 1840 0048 7B69     		ldr	r3, [r7, #20]
 1841 004a 0433     		adds	r3, r3, #4
 1842 004c 1846     		mov	r0, r3
 1843 004e FFF7FEFF 		bl	uxListRemove
 1844 0052 7B69     		ldr	r3, [r7, #20]
 1845 0054 DA6A     		ldr	r2, [r3, #44]
 1846 0056 2B4B     		ldr	r3, .L166+4
 1847 0058 1B68     		ldr	r3, [r3]
 1848 005a 9A42     		cmp	r2, r3
 1849 005c 03D9     		bls	.L164
 1850 005e 7B69     		ldr	r3, [r7, #20]
 1851 0060 DB6A     		ldr	r3, [r3, #44]
 1852 0062 284A     		ldr	r2, .L166+4
 1853 0064 1360     		str	r3, [r2]
 1854              	.L164:
 1855 0066 7B69     		ldr	r3, [r7, #20]
 1856 0068 DA6A     		ldr	r2, [r3, #44]
 1857 006a 2749     		ldr	r1, .L166+8
 1858 006c 1346     		mov	r3, r2
 1859 006e 9B00     		lsls	r3, r3, #2
 1860 0070 1344     		add	r3, r3, r2
 1861 0072 9B00     		lsls	r3, r3, #2
 1862 0074 0B44     		add	r3, r3, r1
 1863 0076 0433     		adds	r3, r3, #4
 1864 0078 1B68     		ldr	r3, [r3]
 1865 007a 3B61     		str	r3, [r7, #16]
 1866 007c 7B69     		ldr	r3, [r7, #20]
 1867 007e 3A69     		ldr	r2, [r7, #16]
 1868 0080 9A60     		str	r2, [r3, #8]
 1869 0082 3B69     		ldr	r3, [r7, #16]
 1870 0084 9A68     		ldr	r2, [r3, #8]
 1871 0086 7B69     		ldr	r3, [r7, #20]
 1872 0088 DA60     		str	r2, [r3, #12]
 1873 008a 3B69     		ldr	r3, [r7, #16]
 1874 008c 9B68     		ldr	r3, [r3, #8]
 1875 008e 7A69     		ldr	r2, [r7, #20]
ARM GAS  C:\Users\phamt\AppData\Local\Temp\ccgYGYX4.s 			page 33


 1876 0090 0432     		adds	r2, r2, #4
 1877 0092 5A60     		str	r2, [r3, #4]
 1878 0094 7B69     		ldr	r3, [r7, #20]
 1879 0096 1A1D     		adds	r2, r3, #4
 1880 0098 3B69     		ldr	r3, [r7, #16]
 1881 009a 9A60     		str	r2, [r3, #8]
 1882 009c 7B69     		ldr	r3, [r7, #20]
 1883 009e DA6A     		ldr	r2, [r3, #44]
 1884 00a0 1346     		mov	r3, r2
 1885 00a2 9B00     		lsls	r3, r3, #2
 1886 00a4 1344     		add	r3, r3, r2
 1887 00a6 9B00     		lsls	r3, r3, #2
 1888 00a8 174A     		ldr	r2, .L166+8
 1889 00aa 1A44     		add	r2, r2, r3
 1890 00ac 7B69     		ldr	r3, [r7, #20]
 1891 00ae 5A61     		str	r2, [r3, #20]
 1892 00b0 7B69     		ldr	r3, [r7, #20]
 1893 00b2 DA6A     		ldr	r2, [r3, #44]
 1894 00b4 1449     		ldr	r1, .L166+8
 1895 00b6 1346     		mov	r3, r2
 1896 00b8 9B00     		lsls	r3, r3, #2
 1897 00ba 1344     		add	r3, r3, r2
 1898 00bc 9B00     		lsls	r3, r3, #2
 1899 00be 0B44     		add	r3, r3, r1
 1900 00c0 1B68     		ldr	r3, [r3]
 1901 00c2 7A69     		ldr	r2, [r7, #20]
 1902 00c4 D26A     		ldr	r2, [r2, #44]
 1903 00c6 591C     		adds	r1, r3, #1
 1904 00c8 0F48     		ldr	r0, .L166+8
 1905 00ca 1346     		mov	r3, r2
 1906 00cc 9B00     		lsls	r3, r3, #2
 1907 00ce 1344     		add	r3, r3, r2
 1908 00d0 9B00     		lsls	r3, r3, #2
 1909 00d2 0344     		add	r3, r3, r0
 1910 00d4 1960     		str	r1, [r3]
 1911 00d6 0A4B     		ldr	r3, .L166
 1912 00d8 1B68     		ldr	r3, [r3]
 1913 00da DA6A     		ldr	r2, [r3, #44]
 1914 00dc 7B69     		ldr	r3, [r7, #20]
 1915 00de DB6A     		ldr	r3, [r3, #44]
 1916 00e0 9A42     		cmp	r2, r3
 1917 00e2 07D2     		bcs	.L163
 1918 00e4 094B     		ldr	r3, .L166+12
 1919 00e6 4FF08052 		mov	r2, #268435456
 1920 00ea 1A60     		str	r2, [r3]
 1921              		.syntax unified
 1922              	@ 3384 "FreeRTOS/tasks.c" 1
 1923 00ec BFF34F8F 		dsb
 1924              	@ 0 "" 2
 1925              	@ 3384 "FreeRTOS/tasks.c" 1
 1926 00f0 BFF36F8F 		isb
 1927              	@ 0 "" 2
 1928              		.thumb
 1929              		.syntax unified
 1930              	.L163:
 1931 00f4 FFF7FEFF 		bl	vPortExitCritical
 1932              	.L165:
ARM GAS  C:\Users\phamt\AppData\Local\Temp\ccgYGYX4.s 			page 34


 1933 00f8 00BF     		nop
 1934 00fa 1837     		adds	r7, r7, #24
 1935 00fc BD46     		mov	sp, r7
 1936              		@ sp needed
 1937 00fe 80BD     		pop	{r7, pc}
 1938              	.L167:
 1939              		.align	2
 1940              	.L166:
 1941 0100 00000000 		.word	pxCurrentTCB
 1942 0104 00000000 		.word	uxTopReadyPriority
 1943 0108 00000000 		.word	pxReadyTasksLists
 1944 010c 04ED00E0 		.word	-536810236
 1946              		.section	.text.xTaskResumeFromISR,"ax",%progbits
 1947              		.align	1
 1948              		.global	xTaskResumeFromISR
 1949              		.syntax unified
 1950              		.thumb
 1951              		.thumb_func
 1953              	xTaskResumeFromISR:
 1954              		@ args = 0, pretend = 0, frame = 40
 1955              		@ frame_needed = 1, uses_anonymous_args = 0
 1956 0000 80B5     		push	{r7, lr}
 1957 0002 8AB0     		sub	sp, sp, #40
 1958 0004 00AF     		add	r7, sp, #0
 1959 0006 7860     		str	r0, [r7, #4]
 1960 0008 0023     		movs	r3, #0
 1961 000a 7B62     		str	r3, [r7, #36]
 1962 000c 7B68     		ldr	r3, [r7, #4]
 1963 000e 3B62     		str	r3, [r7, #32]
 1964 0010 7B68     		ldr	r3, [r7, #4]
 1965 0012 002B     		cmp	r3, #0
 1966 0014 0AD1     		bne	.L169
 1967              		.syntax unified
 1968              	@ 217 "FreeRTOS/portable/GCC/ARM_CM4F/portmacro.h" 1
 1969 0016 4FF05003 		   mov r3, #80                                              
 1970 001a 83F31188 	   msr basepri, r3                                         
 1971 001e BFF36F8F 	   isb                                                     
 1972 0022 BFF34F8F 	   dsb                                                     
 1973              	
 1974              	@ 0 "" 2
 1975              		.thumb
 1976              		.syntax unified
 1977 0026 7B61     		str	r3, [r7, #20]
 1978 0028 00BF     		nop
 1979              	.L170:
 1980 002a FEE7     		b	.L170
 1981              	.L169:
 1982 002c FFF7FEFF 		bl	vPortValidateInterruptPriority
 1983              		.syntax unified
 1984              	@ 233 "FreeRTOS/portable/GCC/ARM_CM4F/portmacro.h" 1
 1985 0030 EFF31182 		   mrs r2, basepri                                         
 1986 0034 4FF05003 	   mov r3, #80                                              
 1987 0038 83F31188 	   msr basepri, r3                                         
 1988 003c BFF36F8F 	   isb                                                     
 1989 0040 BFF34F8F 	   dsb                                                     
 1990              	
 1991              	@ 0 "" 2
ARM GAS  C:\Users\phamt\AppData\Local\Temp\ccgYGYX4.s 			page 35


 1992              		.thumb
 1993              		.syntax unified
 1994 0044 3A61     		str	r2, [r7, #16]
 1995 0046 FB60     		str	r3, [r7, #12]
 1996 0048 3B69     		ldr	r3, [r7, #16]
 1997 004a FB61     		str	r3, [r7, #28]
 1998 004c 386A     		ldr	r0, [r7, #32]
 1999 004e FFF7FEFF 		bl	prvTaskIsTaskSuspended
 2000 0052 0346     		mov	r3, r0
 2001 0054 002B     		cmp	r3, #0
 2002 0056 5DD0     		beq	.L172
 2003 0058 344B     		ldr	r3, .L177
 2004 005a 1B68     		ldr	r3, [r3]
 2005 005c 002B     		cmp	r3, #0
 2006 005e 53D1     		bne	.L173
 2007 0060 3B6A     		ldr	r3, [r7, #32]
 2008 0062 DA6A     		ldr	r2, [r3, #44]
 2009 0064 324B     		ldr	r3, .L177+4
 2010 0066 1B68     		ldr	r3, [r3]
 2011 0068 DB6A     		ldr	r3, [r3, #44]
 2012 006a 9A42     		cmp	r2, r3
 2013 006c 04D9     		bls	.L174
 2014 006e 0123     		movs	r3, #1
 2015 0070 7B62     		str	r3, [r7, #36]
 2016 0072 304B     		ldr	r3, .L177+8
 2017 0074 0122     		movs	r2, #1
 2018 0076 1A60     		str	r2, [r3]
 2019              	.L174:
 2020 0078 3B6A     		ldr	r3, [r7, #32]
 2021 007a 0433     		adds	r3, r3, #4
 2022 007c 1846     		mov	r0, r3
 2023 007e FFF7FEFF 		bl	uxListRemove
 2024 0082 3B6A     		ldr	r3, [r7, #32]
 2025 0084 DA6A     		ldr	r2, [r3, #44]
 2026 0086 2C4B     		ldr	r3, .L177+12
 2027 0088 1B68     		ldr	r3, [r3]
 2028 008a 9A42     		cmp	r2, r3
 2029 008c 03D9     		bls	.L175
 2030 008e 3B6A     		ldr	r3, [r7, #32]
 2031 0090 DB6A     		ldr	r3, [r3, #44]
 2032 0092 294A     		ldr	r2, .L177+12
 2033 0094 1360     		str	r3, [r2]
 2034              	.L175:
 2035 0096 3B6A     		ldr	r3, [r7, #32]
 2036 0098 DA6A     		ldr	r2, [r3, #44]
 2037 009a 2849     		ldr	r1, .L177+16
 2038 009c 1346     		mov	r3, r2
 2039 009e 9B00     		lsls	r3, r3, #2
 2040 00a0 1344     		add	r3, r3, r2
 2041 00a2 9B00     		lsls	r3, r3, #2
 2042 00a4 0B44     		add	r3, r3, r1
 2043 00a6 0433     		adds	r3, r3, #4
 2044 00a8 1B68     		ldr	r3, [r3]
 2045 00aa BB61     		str	r3, [r7, #24]
 2046 00ac 3B6A     		ldr	r3, [r7, #32]
 2047 00ae BA69     		ldr	r2, [r7, #24]
 2048 00b0 9A60     		str	r2, [r3, #8]
ARM GAS  C:\Users\phamt\AppData\Local\Temp\ccgYGYX4.s 			page 36


 2049 00b2 BB69     		ldr	r3, [r7, #24]
 2050 00b4 9A68     		ldr	r2, [r3, #8]
 2051 00b6 3B6A     		ldr	r3, [r7, #32]
 2052 00b8 DA60     		str	r2, [r3, #12]
 2053 00ba BB69     		ldr	r3, [r7, #24]
 2054 00bc 9B68     		ldr	r3, [r3, #8]
 2055 00be 3A6A     		ldr	r2, [r7, #32]
 2056 00c0 0432     		adds	r2, r2, #4
 2057 00c2 5A60     		str	r2, [r3, #4]
 2058 00c4 3B6A     		ldr	r3, [r7, #32]
 2059 00c6 1A1D     		adds	r2, r3, #4
 2060 00c8 BB69     		ldr	r3, [r7, #24]
 2061 00ca 9A60     		str	r2, [r3, #8]
 2062 00cc 3B6A     		ldr	r3, [r7, #32]
 2063 00ce DA6A     		ldr	r2, [r3, #44]
 2064 00d0 1346     		mov	r3, r2
 2065 00d2 9B00     		lsls	r3, r3, #2
 2066 00d4 1344     		add	r3, r3, r2
 2067 00d6 9B00     		lsls	r3, r3, #2
 2068 00d8 184A     		ldr	r2, .L177+16
 2069 00da 1A44     		add	r2, r2, r3
 2070 00dc 3B6A     		ldr	r3, [r7, #32]
 2071 00de 5A61     		str	r2, [r3, #20]
 2072 00e0 3B6A     		ldr	r3, [r7, #32]
 2073 00e2 DA6A     		ldr	r2, [r3, #44]
 2074 00e4 1549     		ldr	r1, .L177+16
 2075 00e6 1346     		mov	r3, r2
 2076 00e8 9B00     		lsls	r3, r3, #2
 2077 00ea 1344     		add	r3, r3, r2
 2078 00ec 9B00     		lsls	r3, r3, #2
 2079 00ee 0B44     		add	r3, r3, r1
 2080 00f0 1B68     		ldr	r3, [r3]
 2081 00f2 3A6A     		ldr	r2, [r7, #32]
 2082 00f4 D26A     		ldr	r2, [r2, #44]
 2083 00f6 591C     		adds	r1, r3, #1
 2084 00f8 1048     		ldr	r0, .L177+16
 2085 00fa 1346     		mov	r3, r2
 2086 00fc 9B00     		lsls	r3, r3, #2
 2087 00fe 1344     		add	r3, r3, r2
 2088 0100 9B00     		lsls	r3, r3, #2
 2089 0102 0344     		add	r3, r3, r0
 2090 0104 1960     		str	r1, [r3]
 2091 0106 05E0     		b	.L172
 2092              	.L173:
 2093 0108 3B6A     		ldr	r3, [r7, #32]
 2094 010a 1833     		adds	r3, r3, #24
 2095 010c 1946     		mov	r1, r3
 2096 010e 0C48     		ldr	r0, .L177+20
 2097 0110 FFF7FEFF 		bl	vListInsertEnd
 2098              	.L172:
 2099 0114 FB69     		ldr	r3, [r7, #28]
 2100 0116 BB60     		str	r3, [r7, #8]
 2101 0118 BB68     		ldr	r3, [r7, #8]
 2102              		.syntax unified
 2103              	@ 251 "FreeRTOS/portable/GCC/ARM_CM4F/portmacro.h" 1
 2104 011a 83F31188 		   msr basepri, r3 
 2105              	@ 0 "" 2
ARM GAS  C:\Users\phamt\AppData\Local\Temp\ccgYGYX4.s 			page 37


 2106              		.thumb
 2107              		.syntax unified
 2108 011e 00BF     		nop
 2109 0120 7B6A     		ldr	r3, [r7, #36]
 2110 0122 1846     		mov	r0, r3
 2111 0124 2837     		adds	r7, r7, #40
 2112 0126 BD46     		mov	sp, r7
 2113              		@ sp needed
 2114 0128 80BD     		pop	{r7, pc}
 2115              	.L178:
 2116 012a 00BF     		.align	2
 2117              	.L177:
 2118 012c 00000000 		.word	uxSchedulerSuspended
 2119 0130 00000000 		.word	pxCurrentTCB
 2120 0134 00000000 		.word	xYieldPendings
 2121 0138 00000000 		.word	uxTopReadyPriority
 2122 013c 00000000 		.word	pxReadyTasksLists
 2123 0140 00000000 		.word	xPendingReadyList
 2125              		.section	.rodata
 2126              		.align	2
 2127              	.LC0:
 2128 0000 49444C45 		.ascii	"IDLE\000"
 2128      00
 2129              		.section	.text.prvCreateIdleTasks,"ax",%progbits
 2130              		.align	1
 2131              		.syntax unified
 2132              		.thumb
 2133              		.thumb_func
 2135              	prvCreateIdleTasks:
 2136              		@ args = 0, pretend = 0, frame = 32
 2137              		@ frame_needed = 1, uses_anonymous_args = 0
 2138 0000 80B5     		push	{r7, lr}
 2139 0002 8AB0     		sub	sp, sp, #40
 2140 0004 02AF     		add	r7, sp, #8
 2141 0006 0123     		movs	r3, #1
 2142 0008 FB61     		str	r3, [r7, #28]
 2143 000a 0023     		movs	r3, #0
 2144 000c 3B61     		str	r3, [r7, #16]
 2145 000e 0023     		movs	r3, #0
 2146 0010 7B61     		str	r3, [r7, #20]
 2147 0012 11E0     		b	.L180
 2148              	.L183:
 2149 0014 1C4A     		ldr	r2, .L191
 2150 0016 7B69     		ldr	r3, [r7, #20]
 2151 0018 1344     		add	r3, r3, r2
 2152 001a 1978     		ldrb	r1, [r3]	@ zero_extendqisi2
 2153 001c 3A46     		mov	r2, r7
 2154 001e 7B69     		ldr	r3, [r7, #20]
 2155 0020 1344     		add	r3, r3, r2
 2156 0022 0A46     		mov	r2, r1
 2157 0024 1A70     		strb	r2, [r3]
 2158 0026 3A46     		mov	r2, r7
 2159 0028 7B69     		ldr	r3, [r7, #20]
 2160 002a 1344     		add	r3, r3, r2
 2161 002c 1B78     		ldrb	r3, [r3]	@ zero_extendqisi2
 2162 002e 002B     		cmp	r3, #0
 2163 0030 06D0     		beq	.L189
ARM GAS  C:\Users\phamt\AppData\Local\Temp\ccgYGYX4.s 			page 38


 2164 0032 7B69     		ldr	r3, [r7, #20]
 2165 0034 0133     		adds	r3, r3, #1
 2166 0036 7B61     		str	r3, [r7, #20]
 2167              	.L180:
 2168 0038 7B69     		ldr	r3, [r7, #20]
 2169 003a 0F2B     		cmp	r3, #15
 2170 003c EADD     		ble	.L183
 2171 003e 00E0     		b	.L182
 2172              	.L189:
 2173 0040 00BF     		nop
 2174              	.L182:
 2175 0042 0023     		movs	r3, #0
 2176 0044 BB61     		str	r3, [r7, #24]
 2177 0046 15E0     		b	.L184
 2178              	.L187:
 2179 0048 104B     		ldr	r3, .L191+4
 2180 004a 3B61     		str	r3, [r7, #16]
 2181 004c BB69     		ldr	r3, [r7, #24]
 2182 004e 9B00     		lsls	r3, r3, #2
 2183 0050 0F4A     		ldr	r2, .L191+8
 2184 0052 1344     		add	r3, r3, r2
 2185 0054 3946     		mov	r1, r7
 2186 0056 0193     		str	r3, [sp, #4]
 2187 0058 0023     		movs	r3, #0
 2188 005a 0093     		str	r3, [sp]
 2189 005c 0023     		movs	r3, #0
 2190 005e 8022     		movs	r2, #128
 2191 0060 3869     		ldr	r0, [r7, #16]
 2192 0062 FFF7FEFF 		bl	xTaskCreate
 2193 0066 F861     		str	r0, [r7, #28]
 2194 0068 FB69     		ldr	r3, [r7, #28]
 2195 006a 002B     		cmp	r3, #0
 2196 006c 06D0     		beq	.L190
 2197 006e BB69     		ldr	r3, [r7, #24]
 2198 0070 0133     		adds	r3, r3, #1
 2199 0072 BB61     		str	r3, [r7, #24]
 2200              	.L184:
 2201 0074 BB69     		ldr	r3, [r7, #24]
 2202 0076 002B     		cmp	r3, #0
 2203 0078 E6DD     		ble	.L187
 2204 007a 00E0     		b	.L186
 2205              	.L190:
 2206 007c 00BF     		nop
 2207              	.L186:
 2208 007e FB69     		ldr	r3, [r7, #28]
 2209 0080 1846     		mov	r0, r3
 2210 0082 2037     		adds	r7, r7, #32
 2211 0084 BD46     		mov	sp, r7
 2212              		@ sp needed
 2213 0086 80BD     		pop	{r7, pc}
 2214              	.L192:
 2215              		.align	2
 2216              	.L191:
 2217 0088 00000000 		.word	.LC0
 2218 008c 00000000 		.word	prvIdleTask
 2219 0090 00000000 		.word	xIdleTaskHandles
 2221              		.section	.text.vTaskStartScheduler,"ax",%progbits
ARM GAS  C:\Users\phamt\AppData\Local\Temp\ccgYGYX4.s 			page 39


 2222              		.align	1
 2223              		.global	vTaskStartScheduler
 2224              		.syntax unified
 2225              		.thumb
 2226              		.thumb_func
 2228              	vTaskStartScheduler:
 2229              		@ args = 0, pretend = 0, frame = 16
 2230              		@ frame_needed = 1, uses_anonymous_args = 0
 2231 0000 80B5     		push	{r7, lr}
 2232 0002 84B0     		sub	sp, sp, #16
 2233 0004 00AF     		add	r7, sp, #0
 2234 0006 FFF7FEFF 		bl	prvCreateIdleTasks
 2235 000a F860     		str	r0, [r7, #12]
 2236 000c FB68     		ldr	r3, [r7, #12]
 2237 000e 012B     		cmp	r3, #1
 2238 0010 02D1     		bne	.L194
 2239 0012 FFF7FEFF 		bl	xTimerCreateTimerTask
 2240 0016 F860     		str	r0, [r7, #12]
 2241              	.L194:
 2242 0018 FB68     		ldr	r3, [r7, #12]
 2243 001a 012B     		cmp	r3, #1
 2244 001c 16D1     		bne	.L195
 2245              		.syntax unified
 2246              	@ 217 "FreeRTOS/portable/GCC/ARM_CM4F/portmacro.h" 1
 2247 001e 4FF05003 		   mov r3, #80                                              
 2248 0022 83F31188 	   msr basepri, r3                                         
 2249 0026 BFF36F8F 	   isb                                                     
 2250 002a BFF34F8F 	   dsb                                                     
 2251              	
 2252              	@ 0 "" 2
 2253              		.thumb
 2254              		.syntax unified
 2255 002e BB60     		str	r3, [r7, #8]
 2256 0030 00BF     		nop
 2257 0032 114B     		ldr	r3, .L198
 2258 0034 4FF0FF32 		mov	r2, #-1
 2259 0038 1A60     		str	r2, [r3]
 2260 003a 104B     		ldr	r3, .L198+4
 2261 003c 0122     		movs	r2, #1
 2262 003e 1A60     		str	r2, [r3]
 2263 0040 0F4B     		ldr	r3, .L198+8
 2264 0042 0022     		movs	r2, #0
 2265 0044 1A60     		str	r2, [r3]
 2266 0046 FFF7FEFF 		bl	xPortStartScheduler
 2267 004a 0EE0     		b	.L196
 2268              	.L195:
 2269 004c FB68     		ldr	r3, [r7, #12]
 2270 004e B3F1FF3F 		cmp	r3, #-1
 2271 0052 0AD1     		bne	.L196
 2272              		.syntax unified
 2273              	@ 217 "FreeRTOS/portable/GCC/ARM_CM4F/portmacro.h" 1
 2274 0054 4FF05003 		   mov r3, #80                                              
 2275 0058 83F31188 	   msr basepri, r3                                         
 2276 005c BFF36F8F 	   isb                                                     
 2277 0060 BFF34F8F 	   dsb                                                     
 2278              	
 2279              	@ 0 "" 2
ARM GAS  C:\Users\phamt\AppData\Local\Temp\ccgYGYX4.s 			page 40


 2280              		.thumb
 2281              		.syntax unified
 2282 0064 7B60     		str	r3, [r7, #4]
 2283 0066 00BF     		nop
 2284              	.L197:
 2285 0068 FEE7     		b	.L197
 2286              	.L196:
 2287 006a 064B     		ldr	r3, .L198+12
 2288 006c 1B68     		ldr	r3, [r3]
 2289 006e 00BF     		nop
 2290 0070 1037     		adds	r7, r7, #16
 2291 0072 BD46     		mov	sp, r7
 2292              		@ sp needed
 2293 0074 80BD     		pop	{r7, pc}
 2294              	.L199:
 2295 0076 00BF     		.align	2
 2296              	.L198:
 2297 0078 00000000 		.word	xNextTaskUnblockTime
 2298 007c 00000000 		.word	xSchedulerRunning
 2299 0080 00000000 		.word	xTickCount
 2300 0084 00000000 		.word	uxTopUsedPriority
 2302              		.section	.text.vTaskEndScheduler,"ax",%progbits
 2303              		.align	1
 2304              		.global	vTaskEndScheduler
 2305              		.syntax unified
 2306              		.thumb
 2307              		.thumb_func
 2309              	vTaskEndScheduler:
 2310              		@ args = 0, pretend = 0, frame = 8
 2311              		@ frame_needed = 1, uses_anonymous_args = 0
 2312 0000 80B5     		push	{r7, lr}
 2313 0002 82B0     		sub	sp, sp, #8
 2314 0004 00AF     		add	r7, sp, #0
 2315 0006 FFF7FEFF 		bl	xTimerGetTimerDaemonTaskHandle
 2316 000a 0346     		mov	r3, r0
 2317 000c 1846     		mov	r0, r3
 2318 000e FFF7FEFF 		bl	vTaskDelete
 2319 0012 0023     		movs	r3, #0
 2320 0014 7B60     		str	r3, [r7, #4]
 2321 0016 09E0     		b	.L201
 2322              	.L202:
 2323 0018 104A     		ldr	r2, .L203
 2324 001a 7B68     		ldr	r3, [r7, #4]
 2325 001c 52F82330 		ldr	r3, [r2, r3, lsl #2]
 2326 0020 1846     		mov	r0, r3
 2327 0022 FFF7FEFF 		bl	vTaskDelete
 2328 0026 7B68     		ldr	r3, [r7, #4]
 2329 0028 0133     		adds	r3, r3, #1
 2330 002a 7B60     		str	r3, [r7, #4]
 2331              	.L201:
 2332 002c 7B68     		ldr	r3, [r7, #4]
 2333 002e 002B     		cmp	r3, #0
 2334 0030 F2DD     		ble	.L202
 2335 0032 FFF7FEFF 		bl	prvCheckTasksWaitingTermination
 2336              		.syntax unified
 2337              	@ 217 "FreeRTOS/portable/GCC/ARM_CM4F/portmacro.h" 1
 2338 0036 4FF05003 		   mov r3, #80                                              
ARM GAS  C:\Users\phamt\AppData\Local\Temp\ccgYGYX4.s 			page 41


 2339 003a 83F31188 	   msr basepri, r3                                         
 2340 003e BFF36F8F 	   isb                                                     
 2341 0042 BFF34F8F 	   dsb                                                     
 2342              	
 2343              	@ 0 "" 2
 2344              		.thumb
 2345              		.syntax unified
 2346 0046 3B60     		str	r3, [r7]
 2347 0048 00BF     		nop
 2348 004a 054B     		ldr	r3, .L203+4
 2349 004c 0022     		movs	r2, #0
 2350 004e 1A60     		str	r2, [r3]
 2351 0050 FFF7FEFF 		bl	vPortEndScheduler
 2352 0054 00BF     		nop
 2353 0056 0837     		adds	r7, r7, #8
 2354 0058 BD46     		mov	sp, r7
 2355              		@ sp needed
 2356 005a 80BD     		pop	{r7, pc}
 2357              	.L204:
 2358              		.align	2
 2359              	.L203:
 2360 005c 00000000 		.word	xIdleTaskHandles
 2361 0060 00000000 		.word	xSchedulerRunning
 2363              		.section	.text.vTaskSuspendAll,"ax",%progbits
 2364              		.align	1
 2365              		.global	vTaskSuspendAll
 2366              		.syntax unified
 2367              		.thumb
 2368              		.thumb_func
 2370              	vTaskSuspendAll:
 2371              		@ args = 0, pretend = 0, frame = 0
 2372              		@ frame_needed = 1, uses_anonymous_args = 0
 2373              		@ link register save eliminated.
 2374 0000 80B4     		push	{r7}
 2375 0002 00AF     		add	r7, sp, #0
 2376 0004 044B     		ldr	r3, .L206
 2377 0006 1B68     		ldr	r3, [r3]
 2378 0008 0133     		adds	r3, r3, #1
 2379 000a 034A     		ldr	r2, .L206
 2380 000c 1360     		str	r3, [r2]
 2381 000e 00BF     		nop
 2382 0010 BD46     		mov	sp, r7
 2383              		@ sp needed
 2384 0012 5DF8047B 		ldr	r7, [sp], #4
 2385 0016 7047     		bx	lr
 2386              	.L207:
 2387              		.align	2
 2388              	.L206:
 2389 0018 00000000 		.word	uxSchedulerSuspended
 2391              		.section	.text.xTaskResumeAll,"ax",%progbits
 2392              		.align	1
 2393              		.global	xTaskResumeAll
 2394              		.syntax unified
 2395              		.thumb
 2396              		.thumb_func
 2398              	xTaskResumeAll:
 2399              		@ args = 0, pretend = 0, frame = 32
ARM GAS  C:\Users\phamt\AppData\Local\Temp\ccgYGYX4.s 			page 42


 2400              		@ frame_needed = 1, uses_anonymous_args = 0
 2401 0000 80B5     		push	{r7, lr}
 2402 0002 88B0     		sub	sp, sp, #32
 2403 0004 00AF     		add	r7, sp, #0
 2404 0006 0023     		movs	r3, #0
 2405 0008 FB61     		str	r3, [r7, #28]
 2406 000a 0023     		movs	r3, #0
 2407 000c BB61     		str	r3, [r7, #24]
 2408 000e FFF7FEFF 		bl	vPortEnterCritical
 2409 0012 0023     		movs	r3, #0
 2410 0014 3B61     		str	r3, [r7, #16]
 2411 0016 754B     		ldr	r3, .L222
 2412 0018 1B68     		ldr	r3, [r3]
 2413 001a 002B     		cmp	r3, #0
 2414 001c 0AD1     		bne	.L209
 2415              		.syntax unified
 2416              	@ 217 "FreeRTOS/portable/GCC/ARM_CM4F/portmacro.h" 1
 2417 001e 4FF05003 		   mov r3, #80                                              
 2418 0022 83F31188 	   msr basepri, r3                                         
 2419 0026 BFF36F8F 	   isb                                                     
 2420 002a BFF34F8F 	   dsb                                                     
 2421              	
 2422              	@ 0 "" 2
 2423              		.thumb
 2424              		.syntax unified
 2425 002e 3B60     		str	r3, [r7]
 2426 0030 00BF     		nop
 2427              	.L210:
 2428 0032 FEE7     		b	.L210
 2429              	.L209:
 2430 0034 6D4B     		ldr	r3, .L222
 2431 0036 1B68     		ldr	r3, [r3]
 2432 0038 013B     		subs	r3, r3, #1
 2433 003a 6C4A     		ldr	r2, .L222
 2434 003c 1360     		str	r3, [r2]
 2435 003e 6B4B     		ldr	r3, .L222
 2436 0040 1B68     		ldr	r3, [r3]
 2437 0042 002B     		cmp	r3, #0
 2438 0044 40F0CB80 		bne	.L211
 2439 0048 694B     		ldr	r3, .L222+4
 2440 004a 1B68     		ldr	r3, [r3]
 2441 004c 002B     		cmp	r3, #0
 2442 004e 00F0C680 		beq	.L211
 2443 0052 8FE0     		b	.L212
 2444              	.L216:
 2445 0054 674B     		ldr	r3, .L222+8
 2446 0056 DB68     		ldr	r3, [r3, #12]
 2447 0058 DB68     		ldr	r3, [r3, #12]
 2448 005a FB61     		str	r3, [r7, #28]
 2449 005c FB69     		ldr	r3, [r7, #28]
 2450 005e 9B6A     		ldr	r3, [r3, #40]
 2451 0060 FB60     		str	r3, [r7, #12]
 2452 0062 FB69     		ldr	r3, [r7, #28]
 2453 0064 DB69     		ldr	r3, [r3, #28]
 2454 0066 FA69     		ldr	r2, [r7, #28]
 2455 0068 126A     		ldr	r2, [r2, #32]
 2456 006a 9A60     		str	r2, [r3, #8]
ARM GAS  C:\Users\phamt\AppData\Local\Temp\ccgYGYX4.s 			page 43


 2457 006c FB69     		ldr	r3, [r7, #28]
 2458 006e 1B6A     		ldr	r3, [r3, #32]
 2459 0070 FA69     		ldr	r2, [r7, #28]
 2460 0072 D269     		ldr	r2, [r2, #28]
 2461 0074 5A60     		str	r2, [r3, #4]
 2462 0076 FB68     		ldr	r3, [r7, #12]
 2463 0078 5A68     		ldr	r2, [r3, #4]
 2464 007a FB69     		ldr	r3, [r7, #28]
 2465 007c 1833     		adds	r3, r3, #24
 2466 007e 9A42     		cmp	r2, r3
 2467 0080 03D1     		bne	.L213
 2468 0082 FB69     		ldr	r3, [r7, #28]
 2469 0084 1A6A     		ldr	r2, [r3, #32]
 2470 0086 FB68     		ldr	r3, [r7, #12]
 2471 0088 5A60     		str	r2, [r3, #4]
 2472              	.L213:
 2473 008a FB69     		ldr	r3, [r7, #28]
 2474 008c 0022     		movs	r2, #0
 2475 008e 9A62     		str	r2, [r3, #40]
 2476 0090 FB68     		ldr	r3, [r7, #12]
 2477 0092 1B68     		ldr	r3, [r3]
 2478 0094 5A1E     		subs	r2, r3, #1
 2479 0096 FB68     		ldr	r3, [r7, #12]
 2480 0098 1A60     		str	r2, [r3]
 2481 009a FB69     		ldr	r3, [r7, #28]
 2482 009c 5B69     		ldr	r3, [r3, #20]
 2483 009e BB60     		str	r3, [r7, #8]
 2484 00a0 FB69     		ldr	r3, [r7, #28]
 2485 00a2 9B68     		ldr	r3, [r3, #8]
 2486 00a4 FA69     		ldr	r2, [r7, #28]
 2487 00a6 D268     		ldr	r2, [r2, #12]
 2488 00a8 9A60     		str	r2, [r3, #8]
 2489 00aa FB69     		ldr	r3, [r7, #28]
 2490 00ac DB68     		ldr	r3, [r3, #12]
 2491 00ae FA69     		ldr	r2, [r7, #28]
 2492 00b0 9268     		ldr	r2, [r2, #8]
 2493 00b2 5A60     		str	r2, [r3, #4]
 2494 00b4 BB68     		ldr	r3, [r7, #8]
 2495 00b6 5A68     		ldr	r2, [r3, #4]
 2496 00b8 FB69     		ldr	r3, [r7, #28]
 2497 00ba 0433     		adds	r3, r3, #4
 2498 00bc 9A42     		cmp	r2, r3
 2499 00be 03D1     		bne	.L214
 2500 00c0 FB69     		ldr	r3, [r7, #28]
 2501 00c2 DA68     		ldr	r2, [r3, #12]
 2502 00c4 BB68     		ldr	r3, [r7, #8]
 2503 00c6 5A60     		str	r2, [r3, #4]
 2504              	.L214:
 2505 00c8 FB69     		ldr	r3, [r7, #28]
 2506 00ca 0022     		movs	r2, #0
 2507 00cc 5A61     		str	r2, [r3, #20]
 2508 00ce BB68     		ldr	r3, [r7, #8]
 2509 00d0 1B68     		ldr	r3, [r3]
 2510 00d2 5A1E     		subs	r2, r3, #1
 2511 00d4 BB68     		ldr	r3, [r7, #8]
 2512 00d6 1A60     		str	r2, [r3]
 2513 00d8 FB69     		ldr	r3, [r7, #28]
ARM GAS  C:\Users\phamt\AppData\Local\Temp\ccgYGYX4.s 			page 44


 2514 00da DA6A     		ldr	r2, [r3, #44]
 2515 00dc 464B     		ldr	r3, .L222+12
 2516 00de 1B68     		ldr	r3, [r3]
 2517 00e0 9A42     		cmp	r2, r3
 2518 00e2 03D9     		bls	.L215
 2519 00e4 FB69     		ldr	r3, [r7, #28]
 2520 00e6 DB6A     		ldr	r3, [r3, #44]
 2521 00e8 434A     		ldr	r2, .L222+12
 2522 00ea 1360     		str	r3, [r2]
 2523              	.L215:
 2524 00ec FB69     		ldr	r3, [r7, #28]
 2525 00ee DA6A     		ldr	r2, [r3, #44]
 2526 00f0 4249     		ldr	r1, .L222+16
 2527 00f2 1346     		mov	r3, r2
 2528 00f4 9B00     		lsls	r3, r3, #2
 2529 00f6 1344     		add	r3, r3, r2
 2530 00f8 9B00     		lsls	r3, r3, #2
 2531 00fa 0B44     		add	r3, r3, r1
 2532 00fc 0433     		adds	r3, r3, #4
 2533 00fe 1B68     		ldr	r3, [r3]
 2534 0100 7B60     		str	r3, [r7, #4]
 2535 0102 FB69     		ldr	r3, [r7, #28]
 2536 0104 7A68     		ldr	r2, [r7, #4]
 2537 0106 9A60     		str	r2, [r3, #8]
 2538 0108 7B68     		ldr	r3, [r7, #4]
 2539 010a 9A68     		ldr	r2, [r3, #8]
 2540 010c FB69     		ldr	r3, [r7, #28]
 2541 010e DA60     		str	r2, [r3, #12]
 2542 0110 7B68     		ldr	r3, [r7, #4]
 2543 0112 9B68     		ldr	r3, [r3, #8]
 2544 0114 FA69     		ldr	r2, [r7, #28]
 2545 0116 0432     		adds	r2, r2, #4
 2546 0118 5A60     		str	r2, [r3, #4]
 2547 011a FB69     		ldr	r3, [r7, #28]
 2548 011c 1A1D     		adds	r2, r3, #4
 2549 011e 7B68     		ldr	r3, [r7, #4]
 2550 0120 9A60     		str	r2, [r3, #8]
 2551 0122 FB69     		ldr	r3, [r7, #28]
 2552 0124 DA6A     		ldr	r2, [r3, #44]
 2553 0126 1346     		mov	r3, r2
 2554 0128 9B00     		lsls	r3, r3, #2
 2555 012a 1344     		add	r3, r3, r2
 2556 012c 9B00     		lsls	r3, r3, #2
 2557 012e 334A     		ldr	r2, .L222+16
 2558 0130 1A44     		add	r2, r2, r3
 2559 0132 FB69     		ldr	r3, [r7, #28]
 2560 0134 5A61     		str	r2, [r3, #20]
 2561 0136 FB69     		ldr	r3, [r7, #28]
 2562 0138 DA6A     		ldr	r2, [r3, #44]
 2563 013a 3049     		ldr	r1, .L222+16
 2564 013c 1346     		mov	r3, r2
 2565 013e 9B00     		lsls	r3, r3, #2
 2566 0140 1344     		add	r3, r3, r2
 2567 0142 9B00     		lsls	r3, r3, #2
 2568 0144 0B44     		add	r3, r3, r1
 2569 0146 1B68     		ldr	r3, [r3]
 2570 0148 FA69     		ldr	r2, [r7, #28]
ARM GAS  C:\Users\phamt\AppData\Local\Temp\ccgYGYX4.s 			page 45


 2571 014a D26A     		ldr	r2, [r2, #44]
 2572 014c 591C     		adds	r1, r3, #1
 2573 014e 2B48     		ldr	r0, .L222+16
 2574 0150 1346     		mov	r3, r2
 2575 0152 9B00     		lsls	r3, r3, #2
 2576 0154 1344     		add	r3, r3, r2
 2577 0156 9B00     		lsls	r3, r3, #2
 2578 0158 0344     		add	r3, r3, r0
 2579 015a 1960     		str	r1, [r3]
 2580 015c FB69     		ldr	r3, [r7, #28]
 2581 015e DA6A     		ldr	r2, [r3, #44]
 2582 0160 274B     		ldr	r3, .L222+20
 2583 0162 1B68     		ldr	r3, [r3]
 2584 0164 DB6A     		ldr	r3, [r3, #44]
 2585 0166 9A42     		cmp	r2, r3
 2586 0168 04D9     		bls	.L212
 2587 016a 264A     		ldr	r2, .L222+24
 2588 016c 3B69     		ldr	r3, [r7, #16]
 2589 016e 0121     		movs	r1, #1
 2590 0170 42F82310 		str	r1, [r2, r3, lsl #2]
 2591              	.L212:
 2592 0174 1F4B     		ldr	r3, .L222+8
 2593 0176 1B68     		ldr	r3, [r3]
 2594 0178 002B     		cmp	r3, #0
 2595 017a 7FF46BAF 		bne	.L216
 2596 017e FB69     		ldr	r3, [r7, #28]
 2597 0180 002B     		cmp	r3, #0
 2598 0182 01D0     		beq	.L217
 2599 0184 FFF7FEFF 		bl	prvResetNextTaskUnblockTime
 2600              	.L217:
 2601 0188 1F4B     		ldr	r3, .L222+28
 2602 018a 1B68     		ldr	r3, [r3]
 2603 018c 7B61     		str	r3, [r7, #20]
 2604 018e 7B69     		ldr	r3, [r7, #20]
 2605 0190 002B     		cmp	r3, #0
 2606 0192 12D0     		beq	.L218
 2607              	.L220:
 2608 0194 FFF7FEFF 		bl	xTaskIncrementTick
 2609 0198 0346     		mov	r3, r0
 2610 019a 002B     		cmp	r3, #0
 2611 019c 04D0     		beq	.L219
 2612 019e 194A     		ldr	r2, .L222+24
 2613 01a0 3B69     		ldr	r3, [r7, #16]
 2614 01a2 0121     		movs	r1, #1
 2615 01a4 42F82310 		str	r1, [r2, r3, lsl #2]
 2616              	.L219:
 2617 01a8 7B69     		ldr	r3, [r7, #20]
 2618 01aa 013B     		subs	r3, r3, #1
 2619 01ac 7B61     		str	r3, [r7, #20]
 2620 01ae 7B69     		ldr	r3, [r7, #20]
 2621 01b0 002B     		cmp	r3, #0
 2622 01b2 EFD1     		bne	.L220
 2623 01b4 144B     		ldr	r3, .L222+28
 2624 01b6 0022     		movs	r2, #0
 2625 01b8 1A60     		str	r2, [r3]
 2626              	.L218:
 2627 01ba 124A     		ldr	r2, .L222+24
ARM GAS  C:\Users\phamt\AppData\Local\Temp\ccgYGYX4.s 			page 46


 2628 01bc 3B69     		ldr	r3, [r7, #16]
 2629 01be 52F82330 		ldr	r3, [r2, r3, lsl #2]
 2630 01c2 002B     		cmp	r3, #0
 2631 01c4 0BD0     		beq	.L211
 2632 01c6 0123     		movs	r3, #1
 2633 01c8 BB61     		str	r3, [r7, #24]
 2634 01ca 0D4B     		ldr	r3, .L222+20
 2635 01cc 1B68     		ldr	r3, [r3]
 2636 01ce 0F4B     		ldr	r3, .L222+32
 2637 01d0 4FF08052 		mov	r2, #268435456
 2638 01d4 1A60     		str	r2, [r3]
 2639              		.syntax unified
 2640              	@ 4098 "FreeRTOS/tasks.c" 1
 2641 01d6 BFF34F8F 		dsb
 2642              	@ 0 "" 2
 2643              	@ 4098 "FreeRTOS/tasks.c" 1
 2644 01da BFF36F8F 		isb
 2645              	@ 0 "" 2
 2646              		.thumb
 2647              		.syntax unified
 2648              	.L211:
 2649 01de FFF7FEFF 		bl	vPortExitCritical
 2650 01e2 BB69     		ldr	r3, [r7, #24]
 2651 01e4 1846     		mov	r0, r3
 2652 01e6 2037     		adds	r7, r7, #32
 2653 01e8 BD46     		mov	sp, r7
 2654              		@ sp needed
 2655 01ea 80BD     		pop	{r7, pc}
 2656              	.L223:
 2657              		.align	2
 2658              	.L222:
 2659 01ec 00000000 		.word	uxSchedulerSuspended
 2660 01f0 00000000 		.word	uxCurrentNumberOfTasks
 2661 01f4 00000000 		.word	xPendingReadyList
 2662 01f8 00000000 		.word	uxTopReadyPriority
 2663 01fc 00000000 		.word	pxReadyTasksLists
 2664 0200 00000000 		.word	pxCurrentTCB
 2665 0204 00000000 		.word	xYieldPendings
 2666 0208 00000000 		.word	xPendedTicks
 2667 020c 04ED00E0 		.word	-536810236
 2669              		.section	.text.xTaskGetTickCount,"ax",%progbits
 2670              		.align	1
 2671              		.global	xTaskGetTickCount
 2672              		.syntax unified
 2673              		.thumb
 2674              		.thumb_func
 2676              	xTaskGetTickCount:
 2677              		@ args = 0, pretend = 0, frame = 8
 2678              		@ frame_needed = 1, uses_anonymous_args = 0
 2679              		@ link register save eliminated.
 2680 0000 80B4     		push	{r7}
 2681 0002 83B0     		sub	sp, sp, #12
 2682 0004 00AF     		add	r7, sp, #0
 2683 0006 054B     		ldr	r3, .L226
 2684 0008 1B68     		ldr	r3, [r3]
 2685 000a 7B60     		str	r3, [r7, #4]
 2686 000c 7B68     		ldr	r3, [r7, #4]
ARM GAS  C:\Users\phamt\AppData\Local\Temp\ccgYGYX4.s 			page 47


 2687 000e 1846     		mov	r0, r3
 2688 0010 0C37     		adds	r7, r7, #12
 2689 0012 BD46     		mov	sp, r7
 2690              		@ sp needed
 2691 0014 5DF8047B 		ldr	r7, [sp], #4
 2692 0018 7047     		bx	lr
 2693              	.L227:
 2694 001a 00BF     		.align	2
 2695              	.L226:
 2696 001c 00000000 		.word	xTickCount
 2698              		.section	.text.xTaskGetTickCountFromISR,"ax",%progbits
 2699              		.align	1
 2700              		.global	xTaskGetTickCountFromISR
 2701              		.syntax unified
 2702              		.thumb
 2703              		.thumb_func
 2705              	xTaskGetTickCountFromISR:
 2706              		@ args = 0, pretend = 0, frame = 8
 2707              		@ frame_needed = 1, uses_anonymous_args = 0
 2708 0000 80B5     		push	{r7, lr}
 2709 0002 82B0     		sub	sp, sp, #8
 2710 0004 00AF     		add	r7, sp, #0
 2711 0006 FFF7FEFF 		bl	vPortValidateInterruptPriority
 2712 000a 0023     		movs	r3, #0
 2713 000c 7B60     		str	r3, [r7, #4]
 2714 000e 044B     		ldr	r3, .L230
 2715 0010 1B68     		ldr	r3, [r3]
 2716 0012 3B60     		str	r3, [r7]
 2717 0014 3B68     		ldr	r3, [r7]
 2718 0016 1846     		mov	r0, r3
 2719 0018 0837     		adds	r7, r7, #8
 2720 001a BD46     		mov	sp, r7
 2721              		@ sp needed
 2722 001c 80BD     		pop	{r7, pc}
 2723              	.L231:
 2724 001e 00BF     		.align	2
 2725              	.L230:
 2726 0020 00000000 		.word	xTickCount
 2728              		.section	.text.uxTaskGetNumberOfTasks,"ax",%progbits
 2729              		.align	1
 2730              		.global	uxTaskGetNumberOfTasks
 2731              		.syntax unified
 2732              		.thumb
 2733              		.thumb_func
 2735              	uxTaskGetNumberOfTasks:
 2736              		@ args = 0, pretend = 0, frame = 0
 2737              		@ frame_needed = 1, uses_anonymous_args = 0
 2738              		@ link register save eliminated.
 2739 0000 80B4     		push	{r7}
 2740 0002 00AF     		add	r7, sp, #0
 2741 0004 034B     		ldr	r3, .L234
 2742 0006 1B68     		ldr	r3, [r3]
 2743 0008 1846     		mov	r0, r3
 2744 000a BD46     		mov	sp, r7
 2745              		@ sp needed
 2746 000c 5DF8047B 		ldr	r7, [sp], #4
 2747 0010 7047     		bx	lr
ARM GAS  C:\Users\phamt\AppData\Local\Temp\ccgYGYX4.s 			page 48


 2748              	.L235:
 2749 0012 00BF     		.align	2
 2750              	.L234:
 2751 0014 00000000 		.word	uxCurrentNumberOfTasks
 2753              		.section	.text.pcTaskGetName,"ax",%progbits
 2754              		.align	1
 2755              		.global	pcTaskGetName
 2756              		.syntax unified
 2757              		.thumb
 2758              		.thumb_func
 2760              	pcTaskGetName:
 2761              		@ args = 0, pretend = 0, frame = 16
 2762              		@ frame_needed = 1, uses_anonymous_args = 0
 2763              		@ link register save eliminated.
 2764 0000 80B4     		push	{r7}
 2765 0002 85B0     		sub	sp, sp, #20
 2766 0004 00AF     		add	r7, sp, #0
 2767 0006 7860     		str	r0, [r7, #4]
 2768 0008 7B68     		ldr	r3, [r7, #4]
 2769 000a 002B     		cmp	r3, #0
 2770 000c 02D1     		bne	.L237
 2771 000e 0D4B     		ldr	r3, .L242
 2772 0010 1B68     		ldr	r3, [r3]
 2773 0012 00E0     		b	.L238
 2774              	.L237:
 2775 0014 7B68     		ldr	r3, [r7, #4]
 2776              	.L238:
 2777 0016 FB60     		str	r3, [r7, #12]
 2778 0018 FB68     		ldr	r3, [r7, #12]
 2779 001a 002B     		cmp	r3, #0
 2780 001c 0AD1     		bne	.L239
 2781              		.syntax unified
 2782              	@ 217 "FreeRTOS/portable/GCC/ARM_CM4F/portmacro.h" 1
 2783 001e 4FF05003 		   mov r3, #80                                              
 2784 0022 83F31188 	   msr basepri, r3                                         
 2785 0026 BFF36F8F 	   isb                                                     
 2786 002a BFF34F8F 	   dsb                                                     
 2787              	
 2788              	@ 0 "" 2
 2789              		.thumb
 2790              		.syntax unified
 2791 002e BB60     		str	r3, [r7, #8]
 2792 0030 00BF     		nop
 2793              	.L240:
 2794 0032 FEE7     		b	.L240
 2795              	.L239:
 2796 0034 FB68     		ldr	r3, [r7, #12]
 2797 0036 3433     		adds	r3, r3, #52
 2798 0038 1846     		mov	r0, r3
 2799 003a 1437     		adds	r7, r7, #20
 2800 003c BD46     		mov	sp, r7
 2801              		@ sp needed
 2802 003e 5DF8047B 		ldr	r7, [sp], #4
 2803 0042 7047     		bx	lr
 2804              	.L243:
 2805              		.align	2
 2806              	.L242:
ARM GAS  C:\Users\phamt\AppData\Local\Temp\ccgYGYX4.s 			page 49


 2807 0044 00000000 		.word	pxCurrentTCB
 2809              		.section	.text.uxTaskGetSystemState,"ax",%progbits
 2810              		.align	1
 2811              		.global	uxTaskGetSystemState
 2812              		.syntax unified
 2813              		.thumb
 2814              		.thumb_func
 2816              	uxTaskGetSystemState:
 2817              		@ args = 0, pretend = 0, frame = 24
 2818              		@ frame_needed = 1, uses_anonymous_args = 0
 2819 0000 80B5     		push	{r7, lr}
 2820 0002 86B0     		sub	sp, sp, #24
 2821 0004 00AF     		add	r7, sp, #0
 2822 0006 F860     		str	r0, [r7, #12]
 2823 0008 B960     		str	r1, [r7, #8]
 2824 000a 7A60     		str	r2, [r7, #4]
 2825 000c 0023     		movs	r3, #0
 2826 000e 7B61     		str	r3, [r7, #20]
 2827 0010 3823     		movs	r3, #56
 2828 0012 3B61     		str	r3, [r7, #16]
 2829 0014 FFF7FEFF 		bl	vTaskSuspendAll
 2830 0018 3A4B     		ldr	r3, .L248
 2831 001a 1B68     		ldr	r3, [r3]
 2832 001c BA68     		ldr	r2, [r7, #8]
 2833 001e 9A42     		cmp	r2, r3
 2834 0020 68D3     		bcc	.L245
 2835              	.L246:
 2836 0022 3B69     		ldr	r3, [r7, #16]
 2837 0024 013B     		subs	r3, r3, #1
 2838 0026 3B61     		str	r3, [r7, #16]
 2839 0028 7A69     		ldr	r2, [r7, #20]
 2840 002a 1346     		mov	r3, r2
 2841 002c DB00     		lsls	r3, r3, #3
 2842 002e 1344     		add	r3, r3, r2
 2843 0030 9B00     		lsls	r3, r3, #2
 2844 0032 1A46     		mov	r2, r3
 2845 0034 FB68     		ldr	r3, [r7, #12]
 2846 0036 9818     		adds	r0, r3, r2
 2847 0038 3A69     		ldr	r2, [r7, #16]
 2848 003a 1346     		mov	r3, r2
 2849 003c 9B00     		lsls	r3, r3, #2
 2850 003e 1344     		add	r3, r3, r2
 2851 0040 9B00     		lsls	r3, r3, #2
 2852 0042 314A     		ldr	r2, .L248+4
 2853 0044 1344     		add	r3, r3, r2
 2854 0046 0122     		movs	r2, #1
 2855 0048 1946     		mov	r1, r3
 2856 004a FFF7FEFF 		bl	prvListTasksWithinSingleList
 2857 004e 0246     		mov	r2, r0
 2858 0050 7B69     		ldr	r3, [r7, #20]
 2859 0052 1344     		add	r3, r3, r2
 2860 0054 7B61     		str	r3, [r7, #20]
 2861 0056 3B69     		ldr	r3, [r7, #16]
 2862 0058 002B     		cmp	r3, #0
 2863 005a E2D1     		bne	.L246
 2864 005c 7A69     		ldr	r2, [r7, #20]
 2865 005e 1346     		mov	r3, r2
ARM GAS  C:\Users\phamt\AppData\Local\Temp\ccgYGYX4.s 			page 50


 2866 0060 DB00     		lsls	r3, r3, #3
 2867 0062 1344     		add	r3, r3, r2
 2868 0064 9B00     		lsls	r3, r3, #2
 2869 0066 1A46     		mov	r2, r3
 2870 0068 FB68     		ldr	r3, [r7, #12]
 2871 006a 1344     		add	r3, r3, r2
 2872 006c 274A     		ldr	r2, .L248+8
 2873 006e 1168     		ldr	r1, [r2]
 2874 0070 0222     		movs	r2, #2
 2875 0072 1846     		mov	r0, r3
 2876 0074 FFF7FEFF 		bl	prvListTasksWithinSingleList
 2877 0078 0246     		mov	r2, r0
 2878 007a 7B69     		ldr	r3, [r7, #20]
 2879 007c 1344     		add	r3, r3, r2
 2880 007e 7B61     		str	r3, [r7, #20]
 2881 0080 7A69     		ldr	r2, [r7, #20]
 2882 0082 1346     		mov	r3, r2
 2883 0084 DB00     		lsls	r3, r3, #3
 2884 0086 1344     		add	r3, r3, r2
 2885 0088 9B00     		lsls	r3, r3, #2
 2886 008a 1A46     		mov	r2, r3
 2887 008c FB68     		ldr	r3, [r7, #12]
 2888 008e 1344     		add	r3, r3, r2
 2889 0090 1F4A     		ldr	r2, .L248+12
 2890 0092 1168     		ldr	r1, [r2]
 2891 0094 0222     		movs	r2, #2
 2892 0096 1846     		mov	r0, r3
 2893 0098 FFF7FEFF 		bl	prvListTasksWithinSingleList
 2894 009c 0246     		mov	r2, r0
 2895 009e 7B69     		ldr	r3, [r7, #20]
 2896 00a0 1344     		add	r3, r3, r2
 2897 00a2 7B61     		str	r3, [r7, #20]
 2898 00a4 7A69     		ldr	r2, [r7, #20]
 2899 00a6 1346     		mov	r3, r2
 2900 00a8 DB00     		lsls	r3, r3, #3
 2901 00aa 1344     		add	r3, r3, r2
 2902 00ac 9B00     		lsls	r3, r3, #2
 2903 00ae 1A46     		mov	r2, r3
 2904 00b0 FB68     		ldr	r3, [r7, #12]
 2905 00b2 1344     		add	r3, r3, r2
 2906 00b4 0422     		movs	r2, #4
 2907 00b6 1749     		ldr	r1, .L248+16
 2908 00b8 1846     		mov	r0, r3
 2909 00ba FFF7FEFF 		bl	prvListTasksWithinSingleList
 2910 00be 0246     		mov	r2, r0
 2911 00c0 7B69     		ldr	r3, [r7, #20]
 2912 00c2 1344     		add	r3, r3, r2
 2913 00c4 7B61     		str	r3, [r7, #20]
 2914 00c6 7A69     		ldr	r2, [r7, #20]
 2915 00c8 1346     		mov	r3, r2
 2916 00ca DB00     		lsls	r3, r3, #3
 2917 00cc 1344     		add	r3, r3, r2
 2918 00ce 9B00     		lsls	r3, r3, #2
 2919 00d0 1A46     		mov	r2, r3
 2920 00d2 FB68     		ldr	r3, [r7, #12]
 2921 00d4 1344     		add	r3, r3, r2
 2922 00d6 0322     		movs	r2, #3
ARM GAS  C:\Users\phamt\AppData\Local\Temp\ccgYGYX4.s 			page 51


 2923 00d8 0F49     		ldr	r1, .L248+20
 2924 00da 1846     		mov	r0, r3
 2925 00dc FFF7FEFF 		bl	prvListTasksWithinSingleList
 2926 00e0 0246     		mov	r2, r0
 2927 00e2 7B69     		ldr	r3, [r7, #20]
 2928 00e4 1344     		add	r3, r3, r2
 2929 00e6 7B61     		str	r3, [r7, #20]
 2930 00e8 7B68     		ldr	r3, [r7, #4]
 2931 00ea 002B     		cmp	r3, #0
 2932 00ec 02D0     		beq	.L245
 2933 00ee 7B68     		ldr	r3, [r7, #4]
 2934 00f0 0022     		movs	r2, #0
 2935 00f2 1A60     		str	r2, [r3]
 2936              	.L245:
 2937 00f4 FFF7FEFF 		bl	xTaskResumeAll
 2938 00f8 7B69     		ldr	r3, [r7, #20]
 2939 00fa 1846     		mov	r0, r3
 2940 00fc 1837     		adds	r7, r7, #24
 2941 00fe BD46     		mov	sp, r7
 2942              		@ sp needed
 2943 0100 80BD     		pop	{r7, pc}
 2944              	.L249:
 2945 0102 00BF     		.align	2
 2946              	.L248:
 2947 0104 00000000 		.word	uxCurrentNumberOfTasks
 2948 0108 00000000 		.word	pxReadyTasksLists
 2949 010c 00000000 		.word	pxDelayedTaskList
 2950 0110 00000000 		.word	pxOverflowDelayedTaskList
 2951 0114 00000000 		.word	xTasksWaitingTermination
 2952 0118 00000000 		.word	xSuspendedTaskList
 2954              		.section	.text.xTaskCatchUpTicks,"ax",%progbits
 2955              		.align	1
 2956              		.global	xTaskCatchUpTicks
 2957              		.syntax unified
 2958              		.thumb
 2959              		.thumb_func
 2961              	xTaskCatchUpTicks:
 2962              		@ args = 0, pretend = 0, frame = 16
 2963              		@ frame_needed = 1, uses_anonymous_args = 0
 2964 0000 80B5     		push	{r7, lr}
 2965 0002 84B0     		sub	sp, sp, #16
 2966 0004 00AF     		add	r7, sp, #0
 2967 0006 7860     		str	r0, [r7, #4]
 2968 0008 114B     		ldr	r3, .L254
 2969 000a 1B68     		ldr	r3, [r3]
 2970 000c 002B     		cmp	r3, #0
 2971 000e 0AD0     		beq	.L251
 2972              		.syntax unified
 2973              	@ 217 "FreeRTOS/portable/GCC/ARM_CM4F/portmacro.h" 1
 2974 0010 4FF05003 		   mov r3, #80                                              
 2975 0014 83F31188 	   msr basepri, r3                                         
 2976 0018 BFF36F8F 	   isb                                                     
 2977 001c BFF34F8F 	   dsb                                                     
 2978              	
 2979              	@ 0 "" 2
 2980              		.thumb
 2981              		.syntax unified
ARM GAS  C:\Users\phamt\AppData\Local\Temp\ccgYGYX4.s 			page 52


 2982 0020 BB60     		str	r3, [r7, #8]
 2983 0022 00BF     		nop
 2984              	.L252:
 2985 0024 FEE7     		b	.L252
 2986              	.L251:
 2987 0026 FFF7FEFF 		bl	vTaskSuspendAll
 2988 002a FFF7FEFF 		bl	vPortEnterCritical
 2989 002e 094B     		ldr	r3, .L254+4
 2990 0030 1A68     		ldr	r2, [r3]
 2991 0032 7B68     		ldr	r3, [r7, #4]
 2992 0034 1344     		add	r3, r3, r2
 2993 0036 074A     		ldr	r2, .L254+4
 2994 0038 1360     		str	r3, [r2]
 2995 003a FFF7FEFF 		bl	vPortExitCritical
 2996 003e FFF7FEFF 		bl	xTaskResumeAll
 2997 0042 F860     		str	r0, [r7, #12]
 2998 0044 FB68     		ldr	r3, [r7, #12]
 2999 0046 1846     		mov	r0, r3
 3000 0048 1037     		adds	r7, r7, #16
 3001 004a BD46     		mov	sp, r7
 3002              		@ sp needed
 3003 004c 80BD     		pop	{r7, pc}
 3004              	.L255:
 3005 004e 00BF     		.align	2
 3006              	.L254:
 3007 0050 00000000 		.word	uxSchedulerSuspended
 3008 0054 00000000 		.word	xPendedTicks
 3010              		.section	.text.xTaskIncrementTick,"ax",%progbits
 3011              		.align	1
 3012              		.global	xTaskIncrementTick
 3013              		.syntax unified
 3014              		.thumb
 3015              		.thumb_func
 3017              	xTaskIncrementTick:
 3018              		@ args = 0, pretend = 0, frame = 40
 3019              		@ frame_needed = 1, uses_anonymous_args = 0
 3020 0000 80B5     		push	{r7, lr}
 3021 0002 8AB0     		sub	sp, sp, #40
 3022 0004 00AF     		add	r7, sp, #0
 3023 0006 0023     		movs	r3, #0
 3024 0008 7B62     		str	r3, [r7, #36]
 3025 000a 7F4B     		ldr	r3, .L273
 3026 000c 1B68     		ldr	r3, [r3]
 3027 000e 002B     		cmp	r3, #0
 3028 0010 40F0EF80 		bne	.L257
 3029 0014 7D4B     		ldr	r3, .L273+4
 3030 0016 1B68     		ldr	r3, [r3]
 3031 0018 0133     		adds	r3, r3, #1
 3032 001a 3B62     		str	r3, [r7, #32]
 3033 001c 7B4A     		ldr	r2, .L273+4
 3034 001e 3B6A     		ldr	r3, [r7, #32]
 3035 0020 1360     		str	r3, [r2]
 3036 0022 3B6A     		ldr	r3, [r7, #32]
 3037 0024 002B     		cmp	r3, #0
 3038 0026 20D1     		bne	.L258
 3039 0028 794B     		ldr	r3, .L273+8
 3040 002a 1B68     		ldr	r3, [r3]
ARM GAS  C:\Users\phamt\AppData\Local\Temp\ccgYGYX4.s 			page 53


 3041 002c 1B68     		ldr	r3, [r3]
 3042 002e 002B     		cmp	r3, #0
 3043 0030 0AD0     		beq	.L259
 3044              		.syntax unified
 3045              	@ 217 "FreeRTOS/portable/GCC/ARM_CM4F/portmacro.h" 1
 3046 0032 4FF05003 		   mov r3, #80                                              
 3047 0036 83F31188 	   msr basepri, r3                                         
 3048 003a BFF36F8F 	   isb                                                     
 3049 003e BFF34F8F 	   dsb                                                     
 3050              	
 3051              	@ 0 "" 2
 3052              		.thumb
 3053              		.syntax unified
 3054 0042 7B60     		str	r3, [r7, #4]
 3055 0044 00BF     		nop
 3056              	.L260:
 3057 0046 FEE7     		b	.L260
 3058              	.L259:
 3059 0048 714B     		ldr	r3, .L273+8
 3060 004a 1B68     		ldr	r3, [r3]
 3061 004c FB61     		str	r3, [r7, #28]
 3062 004e 714B     		ldr	r3, .L273+12
 3063 0050 1B68     		ldr	r3, [r3]
 3064 0052 6F4A     		ldr	r2, .L273+8
 3065 0054 1360     		str	r3, [r2]
 3066 0056 6F4A     		ldr	r2, .L273+12
 3067 0058 FB69     		ldr	r3, [r7, #28]
 3068 005a 1360     		str	r3, [r2]
 3069 005c 6E4B     		ldr	r3, .L273+16
 3070 005e 1B68     		ldr	r3, [r3]
 3071 0060 0133     		adds	r3, r3, #1
 3072 0062 6D4A     		ldr	r2, .L273+16
 3073 0064 1360     		str	r3, [r2]
 3074 0066 FFF7FEFF 		bl	prvResetNextTaskUnblockTime
 3075              	.L258:
 3076 006a 6C4B     		ldr	r3, .L273+20
 3077 006c 1B68     		ldr	r3, [r3]
 3078 006e 3A6A     		ldr	r2, [r7, #32]
 3079 0070 9A42     		cmp	r2, r3
 3080 0072 C0F0A980 		bcc	.L261
 3081              	.L269:
 3082 0076 664B     		ldr	r3, .L273+8
 3083 0078 1B68     		ldr	r3, [r3]
 3084 007a 1B68     		ldr	r3, [r3]
 3085 007c 002B     		cmp	r3, #0
 3086 007e 04D1     		bne	.L262
 3087 0080 664B     		ldr	r3, .L273+20
 3088 0082 4FF0FF32 		mov	r2, #-1
 3089 0086 1A60     		str	r2, [r3]
 3090 0088 9EE0     		b	.L261
 3091              	.L262:
 3092 008a 614B     		ldr	r3, .L273+8
 3093 008c 1B68     		ldr	r3, [r3]
 3094 008e DB68     		ldr	r3, [r3, #12]
 3095 0090 DB68     		ldr	r3, [r3, #12]
 3096 0092 BB61     		str	r3, [r7, #24]
 3097 0094 BB69     		ldr	r3, [r7, #24]
ARM GAS  C:\Users\phamt\AppData\Local\Temp\ccgYGYX4.s 			page 54


 3098 0096 5B68     		ldr	r3, [r3, #4]
 3099 0098 7B61     		str	r3, [r7, #20]
 3100 009a 3A6A     		ldr	r2, [r7, #32]
 3101 009c 7B69     		ldr	r3, [r7, #20]
 3102 009e 9A42     		cmp	r2, r3
 3103 00a0 03D2     		bcs	.L263
 3104 00a2 5E4A     		ldr	r2, .L273+20
 3105 00a4 7B69     		ldr	r3, [r7, #20]
 3106 00a6 1360     		str	r3, [r2]
 3107 00a8 8EE0     		b	.L261
 3108              	.L263:
 3109 00aa BB69     		ldr	r3, [r7, #24]
 3110 00ac 5B69     		ldr	r3, [r3, #20]
 3111 00ae 3B61     		str	r3, [r7, #16]
 3112 00b0 BB69     		ldr	r3, [r7, #24]
 3113 00b2 9B68     		ldr	r3, [r3, #8]
 3114 00b4 BA69     		ldr	r2, [r7, #24]
 3115 00b6 D268     		ldr	r2, [r2, #12]
 3116 00b8 9A60     		str	r2, [r3, #8]
 3117 00ba BB69     		ldr	r3, [r7, #24]
 3118 00bc DB68     		ldr	r3, [r3, #12]
 3119 00be BA69     		ldr	r2, [r7, #24]
 3120 00c0 9268     		ldr	r2, [r2, #8]
 3121 00c2 5A60     		str	r2, [r3, #4]
 3122 00c4 3B69     		ldr	r3, [r7, #16]
 3123 00c6 5A68     		ldr	r2, [r3, #4]
 3124 00c8 BB69     		ldr	r3, [r7, #24]
 3125 00ca 0433     		adds	r3, r3, #4
 3126 00cc 9A42     		cmp	r2, r3
 3127 00ce 03D1     		bne	.L264
 3128 00d0 BB69     		ldr	r3, [r7, #24]
 3129 00d2 DA68     		ldr	r2, [r3, #12]
 3130 00d4 3B69     		ldr	r3, [r7, #16]
 3131 00d6 5A60     		str	r2, [r3, #4]
 3132              	.L264:
 3133 00d8 BB69     		ldr	r3, [r7, #24]
 3134 00da 0022     		movs	r2, #0
 3135 00dc 5A61     		str	r2, [r3, #20]
 3136 00de 3B69     		ldr	r3, [r7, #16]
 3137 00e0 1B68     		ldr	r3, [r3]
 3138 00e2 5A1E     		subs	r2, r3, #1
 3139 00e4 3B69     		ldr	r3, [r7, #16]
 3140 00e6 1A60     		str	r2, [r3]
 3141 00e8 BB69     		ldr	r3, [r7, #24]
 3142 00ea 9B6A     		ldr	r3, [r3, #40]
 3143 00ec 002B     		cmp	r3, #0
 3144 00ee 1ED0     		beq	.L265
 3145 00f0 BB69     		ldr	r3, [r7, #24]
 3146 00f2 9B6A     		ldr	r3, [r3, #40]
 3147 00f4 FB60     		str	r3, [r7, #12]
 3148 00f6 BB69     		ldr	r3, [r7, #24]
 3149 00f8 DB69     		ldr	r3, [r3, #28]
 3150 00fa BA69     		ldr	r2, [r7, #24]
 3151 00fc 126A     		ldr	r2, [r2, #32]
 3152 00fe 9A60     		str	r2, [r3, #8]
 3153 0100 BB69     		ldr	r3, [r7, #24]
 3154 0102 1B6A     		ldr	r3, [r3, #32]
ARM GAS  C:\Users\phamt\AppData\Local\Temp\ccgYGYX4.s 			page 55


 3155 0104 BA69     		ldr	r2, [r7, #24]
 3156 0106 D269     		ldr	r2, [r2, #28]
 3157 0108 5A60     		str	r2, [r3, #4]
 3158 010a FB68     		ldr	r3, [r7, #12]
 3159 010c 5A68     		ldr	r2, [r3, #4]
 3160 010e BB69     		ldr	r3, [r7, #24]
 3161 0110 1833     		adds	r3, r3, #24
 3162 0112 9A42     		cmp	r2, r3
 3163 0114 03D1     		bne	.L266
 3164 0116 BB69     		ldr	r3, [r7, #24]
 3165 0118 1A6A     		ldr	r2, [r3, #32]
 3166 011a FB68     		ldr	r3, [r7, #12]
 3167 011c 5A60     		str	r2, [r3, #4]
 3168              	.L266:
 3169 011e BB69     		ldr	r3, [r7, #24]
 3170 0120 0022     		movs	r2, #0
 3171 0122 9A62     		str	r2, [r3, #40]
 3172 0124 FB68     		ldr	r3, [r7, #12]
 3173 0126 1B68     		ldr	r3, [r3]
 3174 0128 5A1E     		subs	r2, r3, #1
 3175 012a FB68     		ldr	r3, [r7, #12]
 3176 012c 1A60     		str	r2, [r3]
 3177              	.L265:
 3178 012e BB69     		ldr	r3, [r7, #24]
 3179 0130 DA6A     		ldr	r2, [r3, #44]
 3180 0132 3B4B     		ldr	r3, .L273+24
 3181 0134 1B68     		ldr	r3, [r3]
 3182 0136 9A42     		cmp	r2, r3
 3183 0138 03D9     		bls	.L267
 3184 013a BB69     		ldr	r3, [r7, #24]
 3185 013c DB6A     		ldr	r3, [r3, #44]
 3186 013e 384A     		ldr	r2, .L273+24
 3187 0140 1360     		str	r3, [r2]
 3188              	.L267:
 3189 0142 BB69     		ldr	r3, [r7, #24]
 3190 0144 DA6A     		ldr	r2, [r3, #44]
 3191 0146 3749     		ldr	r1, .L273+28
 3192 0148 1346     		mov	r3, r2
 3193 014a 9B00     		lsls	r3, r3, #2
 3194 014c 1344     		add	r3, r3, r2
 3195 014e 9B00     		lsls	r3, r3, #2
 3196 0150 0B44     		add	r3, r3, r1
 3197 0152 0433     		adds	r3, r3, #4
 3198 0154 1B68     		ldr	r3, [r3]
 3199 0156 BB60     		str	r3, [r7, #8]
 3200 0158 BB69     		ldr	r3, [r7, #24]
 3201 015a BA68     		ldr	r2, [r7, #8]
 3202 015c 9A60     		str	r2, [r3, #8]
 3203 015e BB68     		ldr	r3, [r7, #8]
 3204 0160 9A68     		ldr	r2, [r3, #8]
 3205 0162 BB69     		ldr	r3, [r7, #24]
 3206 0164 DA60     		str	r2, [r3, #12]
 3207 0166 BB68     		ldr	r3, [r7, #8]
 3208 0168 9B68     		ldr	r3, [r3, #8]
 3209 016a BA69     		ldr	r2, [r7, #24]
 3210 016c 0432     		adds	r2, r2, #4
 3211 016e 5A60     		str	r2, [r3, #4]
ARM GAS  C:\Users\phamt\AppData\Local\Temp\ccgYGYX4.s 			page 56


 3212 0170 BB69     		ldr	r3, [r7, #24]
 3213 0172 1A1D     		adds	r2, r3, #4
 3214 0174 BB68     		ldr	r3, [r7, #8]
 3215 0176 9A60     		str	r2, [r3, #8]
 3216 0178 BB69     		ldr	r3, [r7, #24]
 3217 017a DA6A     		ldr	r2, [r3, #44]
 3218 017c 1346     		mov	r3, r2
 3219 017e 9B00     		lsls	r3, r3, #2
 3220 0180 1344     		add	r3, r3, r2
 3221 0182 9B00     		lsls	r3, r3, #2
 3222 0184 274A     		ldr	r2, .L273+28
 3223 0186 1A44     		add	r2, r2, r3
 3224 0188 BB69     		ldr	r3, [r7, #24]
 3225 018a 5A61     		str	r2, [r3, #20]
 3226 018c BB69     		ldr	r3, [r7, #24]
 3227 018e DA6A     		ldr	r2, [r3, #44]
 3228 0190 2449     		ldr	r1, .L273+28
 3229 0192 1346     		mov	r3, r2
 3230 0194 9B00     		lsls	r3, r3, #2
 3231 0196 1344     		add	r3, r3, r2
 3232 0198 9B00     		lsls	r3, r3, #2
 3233 019a 0B44     		add	r3, r3, r1
 3234 019c 1B68     		ldr	r3, [r3]
 3235 019e BA69     		ldr	r2, [r7, #24]
 3236 01a0 D26A     		ldr	r2, [r2, #44]
 3237 01a2 591C     		adds	r1, r3, #1
 3238 01a4 1F48     		ldr	r0, .L273+28
 3239 01a6 1346     		mov	r3, r2
 3240 01a8 9B00     		lsls	r3, r3, #2
 3241 01aa 1344     		add	r3, r3, r2
 3242 01ac 9B00     		lsls	r3, r3, #2
 3243 01ae 0344     		add	r3, r3, r0
 3244 01b0 1960     		str	r1, [r3]
 3245 01b2 BB69     		ldr	r3, [r7, #24]
 3246 01b4 DA6A     		ldr	r2, [r3, #44]
 3247 01b6 1C4B     		ldr	r3, .L273+32
 3248 01b8 1B68     		ldr	r3, [r3]
 3249 01ba DB6A     		ldr	r3, [r3, #44]
 3250 01bc 9A42     		cmp	r2, r3
 3251 01be 7FF65AAF 		bls	.L269
 3252 01c2 0123     		movs	r3, #1
 3253 01c4 7B62     		str	r3, [r7, #36]
 3254 01c6 56E7     		b	.L269
 3255              	.L261:
 3256 01c8 174B     		ldr	r3, .L273+32
 3257 01ca 1B68     		ldr	r3, [r3]
 3258 01cc DA6A     		ldr	r2, [r3, #44]
 3259 01ce 1549     		ldr	r1, .L273+28
 3260 01d0 1346     		mov	r3, r2
 3261 01d2 9B00     		lsls	r3, r3, #2
 3262 01d4 1344     		add	r3, r3, r2
 3263 01d6 9B00     		lsls	r3, r3, #2
 3264 01d8 0B44     		add	r3, r3, r1
 3265 01da 1B68     		ldr	r3, [r3]
 3266 01dc 012B     		cmp	r3, #1
 3267 01de 01D9     		bls	.L270
 3268 01e0 0123     		movs	r3, #1
ARM GAS  C:\Users\phamt\AppData\Local\Temp\ccgYGYX4.s 			page 57


 3269 01e2 7B62     		str	r3, [r7, #36]
 3270              	.L270:
 3271 01e4 114B     		ldr	r3, .L273+36
 3272 01e6 1B68     		ldr	r3, [r3]
 3273 01e8 002B     		cmp	r3, #0
 3274 01ea 07D0     		beq	.L271
 3275 01ec 0123     		movs	r3, #1
 3276 01ee 7B62     		str	r3, [r7, #36]
 3277 01f0 04E0     		b	.L271
 3278              	.L257:
 3279 01f2 0F4B     		ldr	r3, .L273+40
 3280 01f4 1B68     		ldr	r3, [r3]
 3281 01f6 0133     		adds	r3, r3, #1
 3282 01f8 0D4A     		ldr	r2, .L273+40
 3283 01fa 1360     		str	r3, [r2]
 3284              	.L271:
 3285 01fc 7B6A     		ldr	r3, [r7, #36]
 3286 01fe 1846     		mov	r0, r3
 3287 0200 2837     		adds	r7, r7, #40
 3288 0202 BD46     		mov	sp, r7
 3289              		@ sp needed
 3290 0204 80BD     		pop	{r7, pc}
 3291              	.L274:
 3292 0206 00BF     		.align	2
 3293              	.L273:
 3294 0208 00000000 		.word	uxSchedulerSuspended
 3295 020c 00000000 		.word	xTickCount
 3296 0210 00000000 		.word	pxDelayedTaskList
 3297 0214 00000000 		.word	pxOverflowDelayedTaskList
 3298 0218 00000000 		.word	xNumOfOverflows
 3299 021c 00000000 		.word	xNextTaskUnblockTime
 3300 0220 00000000 		.word	uxTopReadyPriority
 3301 0224 00000000 		.word	pxReadyTasksLists
 3302 0228 00000000 		.word	pxCurrentTCB
 3303 022c 00000000 		.word	xYieldPendings
 3304 0230 00000000 		.word	xPendedTicks
 3306              		.section	.text.vTaskSwitchContext,"ax",%progbits
 3307              		.align	1
 3308              		.global	vTaskSwitchContext
 3309              		.syntax unified
 3310              		.thumb
 3311              		.thumb_func
 3313              	vTaskSwitchContext:
 3314              		@ args = 0, pretend = 0, frame = 16
 3315              		@ frame_needed = 1, uses_anonymous_args = 0
 3316              		@ link register save eliminated.
 3317 0000 80B4     		push	{r7}
 3318 0002 85B0     		sub	sp, sp, #20
 3319 0004 00AF     		add	r7, sp, #0
 3320 0006 284B     		ldr	r3, .L284
 3321 0008 1B68     		ldr	r3, [r3]
 3322 000a 002B     		cmp	r3, #0
 3323 000c 03D0     		beq	.L276
 3324 000e 274B     		ldr	r3, .L284+4
 3325 0010 0122     		movs	r2, #1
 3326 0012 1A60     		str	r2, [r3]
 3327 0014 42E0     		b	.L283
ARM GAS  C:\Users\phamt\AppData\Local\Temp\ccgYGYX4.s 			page 58


 3328              	.L276:
 3329 0016 254B     		ldr	r3, .L284+4
 3330 0018 0022     		movs	r2, #0
 3331 001a 1A60     		str	r2, [r3]
 3332 001c 244B     		ldr	r3, .L284+8
 3333 001e 1B68     		ldr	r3, [r3]
 3334 0020 FB60     		str	r3, [r7, #12]
 3335 0022 10E0     		b	.L278
 3336              	.L281:
 3337 0024 FB68     		ldr	r3, [r7, #12]
 3338 0026 002B     		cmp	r3, #0
 3339 0028 0AD1     		bne	.L279
 3340              		.syntax unified
 3341              	@ 217 "FreeRTOS/portable/GCC/ARM_CM4F/portmacro.h" 1
 3342 002a 4FF05003 		   mov r3, #80                                              
 3343 002e 83F31188 	   msr basepri, r3                                         
 3344 0032 BFF36F8F 	   isb                                                     
 3345 0036 BFF34F8F 	   dsb                                                     
 3346              	
 3347              	@ 0 "" 2
 3348              		.thumb
 3349              		.syntax unified
 3350 003a 7B60     		str	r3, [r7, #4]
 3351 003c 00BF     		nop
 3352              	.L280:
 3353 003e FEE7     		b	.L280
 3354              	.L279:
 3355 0040 FB68     		ldr	r3, [r7, #12]
 3356 0042 013B     		subs	r3, r3, #1
 3357 0044 FB60     		str	r3, [r7, #12]
 3358              	.L278:
 3359 0046 1B49     		ldr	r1, .L284+12
 3360 0048 FA68     		ldr	r2, [r7, #12]
 3361 004a 1346     		mov	r3, r2
 3362 004c 9B00     		lsls	r3, r3, #2
 3363 004e 1344     		add	r3, r3, r2
 3364 0050 9B00     		lsls	r3, r3, #2
 3365 0052 0B44     		add	r3, r3, r1
 3366 0054 1B68     		ldr	r3, [r3]
 3367 0056 002B     		cmp	r3, #0
 3368 0058 E4D0     		beq	.L281
 3369 005a FA68     		ldr	r2, [r7, #12]
 3370 005c 1346     		mov	r3, r2
 3371 005e 9B00     		lsls	r3, r3, #2
 3372 0060 1344     		add	r3, r3, r2
 3373 0062 9B00     		lsls	r3, r3, #2
 3374 0064 134A     		ldr	r2, .L284+12
 3375 0066 1344     		add	r3, r3, r2
 3376 0068 BB60     		str	r3, [r7, #8]
 3377 006a BB68     		ldr	r3, [r7, #8]
 3378 006c 5B68     		ldr	r3, [r3, #4]
 3379 006e 5A68     		ldr	r2, [r3, #4]
 3380 0070 BB68     		ldr	r3, [r7, #8]
 3381 0072 5A60     		str	r2, [r3, #4]
 3382 0074 BB68     		ldr	r3, [r7, #8]
 3383 0076 5A68     		ldr	r2, [r3, #4]
 3384 0078 BB68     		ldr	r3, [r7, #8]
ARM GAS  C:\Users\phamt\AppData\Local\Temp\ccgYGYX4.s 			page 59


 3385 007a 0833     		adds	r3, r3, #8
 3386 007c 9A42     		cmp	r2, r3
 3387 007e 03D1     		bne	.L282
 3388 0080 BB68     		ldr	r3, [r7, #8]
 3389 0082 DA68     		ldr	r2, [r3, #12]
 3390 0084 BB68     		ldr	r3, [r7, #8]
 3391 0086 5A60     		str	r2, [r3, #4]
 3392              	.L282:
 3393 0088 BB68     		ldr	r3, [r7, #8]
 3394 008a 5B68     		ldr	r3, [r3, #4]
 3395 008c DB68     		ldr	r3, [r3, #12]
 3396 008e 0A4A     		ldr	r2, .L284+16
 3397 0090 1360     		str	r3, [r2]
 3398 0092 074A     		ldr	r2, .L284+8
 3399 0094 FB68     		ldr	r3, [r7, #12]
 3400 0096 1360     		str	r3, [r2]
 3401 0098 074B     		ldr	r3, .L284+16
 3402 009a 1B68     		ldr	r3, [r3]
 3403              	.L283:
 3404 009c 00BF     		nop
 3405 009e 1437     		adds	r7, r7, #20
 3406 00a0 BD46     		mov	sp, r7
 3407              		@ sp needed
 3408 00a2 5DF8047B 		ldr	r7, [sp], #4
 3409 00a6 7047     		bx	lr
 3410              	.L285:
 3411              		.align	2
 3412              	.L284:
 3413 00a8 00000000 		.word	uxSchedulerSuspended
 3414 00ac 00000000 		.word	xYieldPendings
 3415 00b0 00000000 		.word	uxTopReadyPriority
 3416 00b4 00000000 		.word	pxReadyTasksLists
 3417 00b8 00000000 		.word	pxCurrentTCB
 3419              		.section	.text.vTaskPlaceOnEventList,"ax",%progbits
 3420              		.align	1
 3421              		.global	vTaskPlaceOnEventList
 3422              		.syntax unified
 3423              		.thumb
 3424              		.thumb_func
 3426              	vTaskPlaceOnEventList:
 3427              		@ args = 0, pretend = 0, frame = 16
 3428              		@ frame_needed = 1, uses_anonymous_args = 0
 3429 0000 80B5     		push	{r7, lr}
 3430 0002 84B0     		sub	sp, sp, #16
 3431 0004 00AF     		add	r7, sp, #0
 3432 0006 7860     		str	r0, [r7, #4]
 3433 0008 3960     		str	r1, [r7]
 3434 000a 7B68     		ldr	r3, [r7, #4]
 3435 000c 002B     		cmp	r3, #0
 3436 000e 0AD1     		bne	.L287
 3437              		.syntax unified
 3438              	@ 217 "FreeRTOS/portable/GCC/ARM_CM4F/portmacro.h" 1
 3439 0010 4FF05003 		   mov r3, #80                                              
 3440 0014 83F31188 	   msr basepri, r3                                         
 3441 0018 BFF36F8F 	   isb                                                     
 3442 001c BFF34F8F 	   dsb                                                     
 3443              	
ARM GAS  C:\Users\phamt\AppData\Local\Temp\ccgYGYX4.s 			page 60


 3444              	@ 0 "" 2
 3445              		.thumb
 3446              		.syntax unified
 3447 0020 FB60     		str	r3, [r7, #12]
 3448 0022 00BF     		nop
 3449              	.L288:
 3450 0024 FEE7     		b	.L288
 3451              	.L287:
 3452 0026 074B     		ldr	r3, .L289
 3453 0028 1B68     		ldr	r3, [r3]
 3454 002a 1833     		adds	r3, r3, #24
 3455 002c 1946     		mov	r1, r3
 3456 002e 7868     		ldr	r0, [r7, #4]
 3457 0030 FFF7FEFF 		bl	vListInsert
 3458 0034 0121     		movs	r1, #1
 3459 0036 3868     		ldr	r0, [r7]
 3460 0038 FFF7FEFF 		bl	prvAddCurrentTaskToDelayedList
 3461 003c 00BF     		nop
 3462 003e 1037     		adds	r7, r7, #16
 3463 0040 BD46     		mov	sp, r7
 3464              		@ sp needed
 3465 0042 80BD     		pop	{r7, pc}
 3466              	.L290:
 3467              		.align	2
 3468              	.L289:
 3469 0044 00000000 		.word	pxCurrentTCB
 3471              		.section	.text.vTaskPlaceOnUnorderedEventList,"ax",%progbits
 3472              		.align	1
 3473              		.global	vTaskPlaceOnUnorderedEventList
 3474              		.syntax unified
 3475              		.thumb
 3476              		.thumb_func
 3478              	vTaskPlaceOnUnorderedEventList:
 3479              		@ args = 0, pretend = 0, frame = 32
 3480              		@ frame_needed = 1, uses_anonymous_args = 0
 3481 0000 80B5     		push	{r7, lr}
 3482 0002 88B0     		sub	sp, sp, #32
 3483 0004 00AF     		add	r7, sp, #0
 3484 0006 F860     		str	r0, [r7, #12]
 3485 0008 B960     		str	r1, [r7, #8]
 3486 000a 7A60     		str	r2, [r7, #4]
 3487 000c FB68     		ldr	r3, [r7, #12]
 3488 000e 002B     		cmp	r3, #0
 3489 0010 0AD1     		bne	.L292
 3490              		.syntax unified
 3491              	@ 217 "FreeRTOS/portable/GCC/ARM_CM4F/portmacro.h" 1
 3492 0012 4FF05003 		   mov r3, #80                                              
 3493 0016 83F31188 	   msr basepri, r3                                         
 3494 001a BFF36F8F 	   isb                                                     
 3495 001e BFF34F8F 	   dsb                                                     
 3496              	
 3497              	@ 0 "" 2
 3498              		.thumb
 3499              		.syntax unified
 3500 0022 BB61     		str	r3, [r7, #24]
 3501 0024 00BF     		nop
 3502              	.L293:
ARM GAS  C:\Users\phamt\AppData\Local\Temp\ccgYGYX4.s 			page 61


 3503 0026 FEE7     		b	.L293
 3504              	.L292:
 3505 0028 1E4B     		ldr	r3, .L296
 3506 002a 1B68     		ldr	r3, [r3]
 3507 002c 002B     		cmp	r3, #0
 3508 002e 0AD1     		bne	.L294
 3509              		.syntax unified
 3510              	@ 217 "FreeRTOS/portable/GCC/ARM_CM4F/portmacro.h" 1
 3511 0030 4FF05003 		   mov r3, #80                                              
 3512 0034 83F31188 	   msr basepri, r3                                         
 3513 0038 BFF36F8F 	   isb                                                     
 3514 003c BFF34F8F 	   dsb                                                     
 3515              	
 3516              	@ 0 "" 2
 3517              		.thumb
 3518              		.syntax unified
 3519 0040 7B61     		str	r3, [r7, #20]
 3520 0042 00BF     		nop
 3521              	.L295:
 3522 0044 FEE7     		b	.L295
 3523              	.L294:
 3524 0046 184B     		ldr	r3, .L296+4
 3525 0048 1B68     		ldr	r3, [r3]
 3526 004a BA68     		ldr	r2, [r7, #8]
 3527 004c 42F00042 		orr	r2, r2, #-2147483648
 3528 0050 9A61     		str	r2, [r3, #24]
 3529 0052 FB68     		ldr	r3, [r7, #12]
 3530 0054 5B68     		ldr	r3, [r3, #4]
 3531 0056 FB61     		str	r3, [r7, #28]
 3532 0058 134B     		ldr	r3, .L296+4
 3533 005a 1B68     		ldr	r3, [r3]
 3534 005c FA69     		ldr	r2, [r7, #28]
 3535 005e DA61     		str	r2, [r3, #28]
 3536 0060 114B     		ldr	r3, .L296+4
 3537 0062 1B68     		ldr	r3, [r3]
 3538 0064 FA69     		ldr	r2, [r7, #28]
 3539 0066 9268     		ldr	r2, [r2, #8]
 3540 0068 1A62     		str	r2, [r3, #32]
 3541 006a 0F4B     		ldr	r3, .L296+4
 3542 006c 1A68     		ldr	r2, [r3]
 3543 006e FB69     		ldr	r3, [r7, #28]
 3544 0070 9B68     		ldr	r3, [r3, #8]
 3545 0072 1832     		adds	r2, r2, #24
 3546 0074 5A60     		str	r2, [r3, #4]
 3547 0076 0C4B     		ldr	r3, .L296+4
 3548 0078 1B68     		ldr	r3, [r3]
 3549 007a 03F11802 		add	r2, r3, #24
 3550 007e FB69     		ldr	r3, [r7, #28]
 3551 0080 9A60     		str	r2, [r3, #8]
 3552 0082 094B     		ldr	r3, .L296+4
 3553 0084 1B68     		ldr	r3, [r3]
 3554 0086 FA68     		ldr	r2, [r7, #12]
 3555 0088 9A62     		str	r2, [r3, #40]
 3556 008a FB68     		ldr	r3, [r7, #12]
 3557 008c 1B68     		ldr	r3, [r3]
 3558 008e 5A1C     		adds	r2, r3, #1
 3559 0090 FB68     		ldr	r3, [r7, #12]
ARM GAS  C:\Users\phamt\AppData\Local\Temp\ccgYGYX4.s 			page 62


 3560 0092 1A60     		str	r2, [r3]
 3561 0094 0121     		movs	r1, #1
 3562 0096 7868     		ldr	r0, [r7, #4]
 3563 0098 FFF7FEFF 		bl	prvAddCurrentTaskToDelayedList
 3564 009c 00BF     		nop
 3565 009e 2037     		adds	r7, r7, #32
 3566 00a0 BD46     		mov	sp, r7
 3567              		@ sp needed
 3568 00a2 80BD     		pop	{r7, pc}
 3569              	.L297:
 3570              		.align	2
 3571              	.L296:
 3572 00a4 00000000 		.word	uxSchedulerSuspended
 3573 00a8 00000000 		.word	pxCurrentTCB
 3575              		.section	.text.vTaskPlaceOnEventListRestricted,"ax",%progbits
 3576              		.align	1
 3577              		.global	vTaskPlaceOnEventListRestricted
 3578              		.syntax unified
 3579              		.thumb
 3580              		.thumb_func
 3582              	vTaskPlaceOnEventListRestricted:
 3583              		@ args = 0, pretend = 0, frame = 24
 3584              		@ frame_needed = 1, uses_anonymous_args = 0
 3585 0000 80B5     		push	{r7, lr}
 3586 0002 86B0     		sub	sp, sp, #24
 3587 0004 00AF     		add	r7, sp, #0
 3588 0006 F860     		str	r0, [r7, #12]
 3589 0008 B960     		str	r1, [r7, #8]
 3590 000a 7A60     		str	r2, [r7, #4]
 3591 000c FB68     		ldr	r3, [r7, #12]
 3592 000e 002B     		cmp	r3, #0
 3593 0010 0AD1     		bne	.L299
 3594              		.syntax unified
 3595              	@ 217 "FreeRTOS/portable/GCC/ARM_CM4F/portmacro.h" 1
 3596 0012 4FF05003 		   mov r3, #80                                              
 3597 0016 83F31188 	   msr basepri, r3                                         
 3598 001a BFF36F8F 	   isb                                                     
 3599 001e BFF34F8F 	   dsb                                                     
 3600              	
 3601              	@ 0 "" 2
 3602              		.thumb
 3603              		.syntax unified
 3604 0022 3B61     		str	r3, [r7, #16]
 3605 0024 00BF     		nop
 3606              	.L300:
 3607 0026 FEE7     		b	.L300
 3608              	.L299:
 3609 0028 FB68     		ldr	r3, [r7, #12]
 3610 002a 5B68     		ldr	r3, [r3, #4]
 3611 002c 7B61     		str	r3, [r7, #20]
 3612 002e 164B     		ldr	r3, .L302
 3613 0030 1B68     		ldr	r3, [r3]
 3614 0032 7A69     		ldr	r2, [r7, #20]
 3615 0034 DA61     		str	r2, [r3, #28]
 3616 0036 144B     		ldr	r3, .L302
 3617 0038 1B68     		ldr	r3, [r3]
 3618 003a 7A69     		ldr	r2, [r7, #20]
ARM GAS  C:\Users\phamt\AppData\Local\Temp\ccgYGYX4.s 			page 63


 3619 003c 9268     		ldr	r2, [r2, #8]
 3620 003e 1A62     		str	r2, [r3, #32]
 3621 0040 114B     		ldr	r3, .L302
 3622 0042 1A68     		ldr	r2, [r3]
 3623 0044 7B69     		ldr	r3, [r7, #20]
 3624 0046 9B68     		ldr	r3, [r3, #8]
 3625 0048 1832     		adds	r2, r2, #24
 3626 004a 5A60     		str	r2, [r3, #4]
 3627 004c 0E4B     		ldr	r3, .L302
 3628 004e 1B68     		ldr	r3, [r3]
 3629 0050 03F11802 		add	r2, r3, #24
 3630 0054 7B69     		ldr	r3, [r7, #20]
 3631 0056 9A60     		str	r2, [r3, #8]
 3632 0058 0B4B     		ldr	r3, .L302
 3633 005a 1B68     		ldr	r3, [r3]
 3634 005c FA68     		ldr	r2, [r7, #12]
 3635 005e 9A62     		str	r2, [r3, #40]
 3636 0060 FB68     		ldr	r3, [r7, #12]
 3637 0062 1B68     		ldr	r3, [r3]
 3638 0064 5A1C     		adds	r2, r3, #1
 3639 0066 FB68     		ldr	r3, [r7, #12]
 3640 0068 1A60     		str	r2, [r3]
 3641 006a 7B68     		ldr	r3, [r7, #4]
 3642 006c 002B     		cmp	r3, #0
 3643 006e 02D0     		beq	.L301
 3644 0070 4FF0FF33 		mov	r3, #-1
 3645 0074 BB60     		str	r3, [r7, #8]
 3646              	.L301:
 3647 0076 7968     		ldr	r1, [r7, #4]
 3648 0078 B868     		ldr	r0, [r7, #8]
 3649 007a FFF7FEFF 		bl	prvAddCurrentTaskToDelayedList
 3650 007e 00BF     		nop
 3651 0080 1837     		adds	r7, r7, #24
 3652 0082 BD46     		mov	sp, r7
 3653              		@ sp needed
 3654 0084 80BD     		pop	{r7, pc}
 3655              	.L303:
 3656 0086 00BF     		.align	2
 3657              	.L302:
 3658 0088 00000000 		.word	pxCurrentTCB
 3660              		.section	.text.xTaskRemoveFromEventList,"ax",%progbits
 3661              		.align	1
 3662              		.global	xTaskRemoveFromEventList
 3663              		.syntax unified
 3664              		.thumb
 3665              		.thumb_func
 3667              	xTaskRemoveFromEventList:
 3668              		@ args = 0, pretend = 0, frame = 40
 3669              		@ frame_needed = 1, uses_anonymous_args = 0
 3670              		@ link register save eliminated.
 3671 0000 80B4     		push	{r7}
 3672 0002 8BB0     		sub	sp, sp, #44
 3673 0004 00AF     		add	r7, sp, #0
 3674 0006 7860     		str	r0, [r7, #4]
 3675 0008 7B68     		ldr	r3, [r7, #4]
 3676 000a DB68     		ldr	r3, [r3, #12]
 3677 000c DB68     		ldr	r3, [r3, #12]
ARM GAS  C:\Users\phamt\AppData\Local\Temp\ccgYGYX4.s 			page 64


 3678 000e 3B62     		str	r3, [r7, #32]
 3679 0010 3B6A     		ldr	r3, [r7, #32]
 3680 0012 002B     		cmp	r3, #0
 3681 0014 0AD1     		bne	.L305
 3682              		.syntax unified
 3683              	@ 217 "FreeRTOS/portable/GCC/ARM_CM4F/portmacro.h" 1
 3684 0016 4FF05003 		   mov r3, #80                                              
 3685 001a 83F31188 	   msr basepri, r3                                         
 3686 001e BFF36F8F 	   isb                                                     
 3687 0022 BFF34F8F 	   dsb                                                     
 3688              	
 3689              	@ 0 "" 2
 3690              		.thumb
 3691              		.syntax unified
 3692 0026 FB60     		str	r3, [r7, #12]
 3693 0028 00BF     		nop
 3694              	.L306:
 3695 002a FEE7     		b	.L306
 3696              	.L305:
 3697 002c 3B6A     		ldr	r3, [r7, #32]
 3698 002e 9B6A     		ldr	r3, [r3, #40]
 3699 0030 FB61     		str	r3, [r7, #28]
 3700 0032 3B6A     		ldr	r3, [r7, #32]
 3701 0034 DB69     		ldr	r3, [r3, #28]
 3702 0036 3A6A     		ldr	r2, [r7, #32]
 3703 0038 126A     		ldr	r2, [r2, #32]
 3704 003a 9A60     		str	r2, [r3, #8]
 3705 003c 3B6A     		ldr	r3, [r7, #32]
 3706 003e 1B6A     		ldr	r3, [r3, #32]
 3707 0040 3A6A     		ldr	r2, [r7, #32]
 3708 0042 D269     		ldr	r2, [r2, #28]
 3709 0044 5A60     		str	r2, [r3, #4]
 3710 0046 FB69     		ldr	r3, [r7, #28]
 3711 0048 5A68     		ldr	r2, [r3, #4]
 3712 004a 3B6A     		ldr	r3, [r7, #32]
 3713 004c 1833     		adds	r3, r3, #24
 3714 004e 9A42     		cmp	r2, r3
 3715 0050 03D1     		bne	.L307
 3716 0052 3B6A     		ldr	r3, [r7, #32]
 3717 0054 1A6A     		ldr	r2, [r3, #32]
 3718 0056 FB69     		ldr	r3, [r7, #28]
 3719 0058 5A60     		str	r2, [r3, #4]
 3720              	.L307:
 3721 005a 3B6A     		ldr	r3, [r7, #32]
 3722 005c 0022     		movs	r2, #0
 3723 005e 9A62     		str	r2, [r3, #40]
 3724 0060 FB69     		ldr	r3, [r7, #28]
 3725 0062 1B68     		ldr	r3, [r3]
 3726 0064 5A1E     		subs	r2, r3, #1
 3727 0066 FB69     		ldr	r3, [r7, #28]
 3728 0068 1A60     		str	r2, [r3]
 3729 006a 4C4B     		ldr	r3, .L315
 3730 006c 1B68     		ldr	r3, [r3]
 3731 006e 002B     		cmp	r3, #0
 3732 0070 61D1     		bne	.L308
 3733 0072 3B6A     		ldr	r3, [r7, #32]
 3734 0074 5B69     		ldr	r3, [r3, #20]
ARM GAS  C:\Users\phamt\AppData\Local\Temp\ccgYGYX4.s 			page 65


 3735 0076 7B61     		str	r3, [r7, #20]
 3736 0078 3B6A     		ldr	r3, [r7, #32]
 3737 007a 9B68     		ldr	r3, [r3, #8]
 3738 007c 3A6A     		ldr	r2, [r7, #32]
 3739 007e D268     		ldr	r2, [r2, #12]
 3740 0080 9A60     		str	r2, [r3, #8]
 3741 0082 3B6A     		ldr	r3, [r7, #32]
 3742 0084 DB68     		ldr	r3, [r3, #12]
 3743 0086 3A6A     		ldr	r2, [r7, #32]
 3744 0088 9268     		ldr	r2, [r2, #8]
 3745 008a 5A60     		str	r2, [r3, #4]
 3746 008c 7B69     		ldr	r3, [r7, #20]
 3747 008e 5A68     		ldr	r2, [r3, #4]
 3748 0090 3B6A     		ldr	r3, [r7, #32]
 3749 0092 0433     		adds	r3, r3, #4
 3750 0094 9A42     		cmp	r2, r3
 3751 0096 03D1     		bne	.L309
 3752 0098 3B6A     		ldr	r3, [r7, #32]
 3753 009a DA68     		ldr	r2, [r3, #12]
 3754 009c 7B69     		ldr	r3, [r7, #20]
 3755 009e 5A60     		str	r2, [r3, #4]
 3756              	.L309:
 3757 00a0 3B6A     		ldr	r3, [r7, #32]
 3758 00a2 0022     		movs	r2, #0
 3759 00a4 5A61     		str	r2, [r3, #20]
 3760 00a6 7B69     		ldr	r3, [r7, #20]
 3761 00a8 1B68     		ldr	r3, [r3]
 3762 00aa 5A1E     		subs	r2, r3, #1
 3763 00ac 7B69     		ldr	r3, [r7, #20]
 3764 00ae 1A60     		str	r2, [r3]
 3765 00b0 3B6A     		ldr	r3, [r7, #32]
 3766 00b2 DA6A     		ldr	r2, [r3, #44]
 3767 00b4 3A4B     		ldr	r3, .L315+4
 3768 00b6 1B68     		ldr	r3, [r3]
 3769 00b8 9A42     		cmp	r2, r3
 3770 00ba 03D9     		bls	.L310
 3771 00bc 3B6A     		ldr	r3, [r7, #32]
 3772 00be DB6A     		ldr	r3, [r3, #44]
 3773 00c0 374A     		ldr	r2, .L315+4
 3774 00c2 1360     		str	r3, [r2]
 3775              	.L310:
 3776 00c4 3B6A     		ldr	r3, [r7, #32]
 3777 00c6 DA6A     		ldr	r2, [r3, #44]
 3778 00c8 3649     		ldr	r1, .L315+8
 3779 00ca 1346     		mov	r3, r2
 3780 00cc 9B00     		lsls	r3, r3, #2
 3781 00ce 1344     		add	r3, r3, r2
 3782 00d0 9B00     		lsls	r3, r3, #2
 3783 00d2 0B44     		add	r3, r3, r1
 3784 00d4 0433     		adds	r3, r3, #4
 3785 00d6 1B68     		ldr	r3, [r3]
 3786 00d8 3B61     		str	r3, [r7, #16]
 3787 00da 3B6A     		ldr	r3, [r7, #32]
 3788 00dc 3A69     		ldr	r2, [r7, #16]
 3789 00de 9A60     		str	r2, [r3, #8]
 3790 00e0 3B69     		ldr	r3, [r7, #16]
 3791 00e2 9A68     		ldr	r2, [r3, #8]
ARM GAS  C:\Users\phamt\AppData\Local\Temp\ccgYGYX4.s 			page 66


 3792 00e4 3B6A     		ldr	r3, [r7, #32]
 3793 00e6 DA60     		str	r2, [r3, #12]
 3794 00e8 3B69     		ldr	r3, [r7, #16]
 3795 00ea 9B68     		ldr	r3, [r3, #8]
 3796 00ec 3A6A     		ldr	r2, [r7, #32]
 3797 00ee 0432     		adds	r2, r2, #4
 3798 00f0 5A60     		str	r2, [r3, #4]
 3799 00f2 3B6A     		ldr	r3, [r7, #32]
 3800 00f4 1A1D     		adds	r2, r3, #4
 3801 00f6 3B69     		ldr	r3, [r7, #16]
 3802 00f8 9A60     		str	r2, [r3, #8]
 3803 00fa 3B6A     		ldr	r3, [r7, #32]
 3804 00fc DA6A     		ldr	r2, [r3, #44]
 3805 00fe 1346     		mov	r3, r2
 3806 0100 9B00     		lsls	r3, r3, #2
 3807 0102 1344     		add	r3, r3, r2
 3808 0104 9B00     		lsls	r3, r3, #2
 3809 0106 274A     		ldr	r2, .L315+8
 3810 0108 1A44     		add	r2, r2, r3
 3811 010a 3B6A     		ldr	r3, [r7, #32]
 3812 010c 5A61     		str	r2, [r3, #20]
 3813 010e 3B6A     		ldr	r3, [r7, #32]
 3814 0110 DA6A     		ldr	r2, [r3, #44]
 3815 0112 2449     		ldr	r1, .L315+8
 3816 0114 1346     		mov	r3, r2
 3817 0116 9B00     		lsls	r3, r3, #2
 3818 0118 1344     		add	r3, r3, r2
 3819 011a 9B00     		lsls	r3, r3, #2
 3820 011c 0B44     		add	r3, r3, r1
 3821 011e 1B68     		ldr	r3, [r3]
 3822 0120 3A6A     		ldr	r2, [r7, #32]
 3823 0122 D26A     		ldr	r2, [r2, #44]
 3824 0124 591C     		adds	r1, r3, #1
 3825 0126 1F48     		ldr	r0, .L315+8
 3826 0128 1346     		mov	r3, r2
 3827 012a 9B00     		lsls	r3, r3, #2
 3828 012c 1344     		add	r3, r3, r2
 3829 012e 9B00     		lsls	r3, r3, #2
 3830 0130 0344     		add	r3, r3, r0
 3831 0132 1960     		str	r1, [r3]
 3832 0134 1BE0     		b	.L311
 3833              	.L308:
 3834 0136 1C4B     		ldr	r3, .L315+12
 3835 0138 5B68     		ldr	r3, [r3, #4]
 3836 013a BB61     		str	r3, [r7, #24]
 3837 013c 3B6A     		ldr	r3, [r7, #32]
 3838 013e BA69     		ldr	r2, [r7, #24]
 3839 0140 DA61     		str	r2, [r3, #28]
 3840 0142 BB69     		ldr	r3, [r7, #24]
 3841 0144 9A68     		ldr	r2, [r3, #8]
 3842 0146 3B6A     		ldr	r3, [r7, #32]
 3843 0148 1A62     		str	r2, [r3, #32]
 3844 014a BB69     		ldr	r3, [r7, #24]
 3845 014c 9B68     		ldr	r3, [r3, #8]
 3846 014e 3A6A     		ldr	r2, [r7, #32]
 3847 0150 1832     		adds	r2, r2, #24
 3848 0152 5A60     		str	r2, [r3, #4]
ARM GAS  C:\Users\phamt\AppData\Local\Temp\ccgYGYX4.s 			page 67


 3849 0154 3B6A     		ldr	r3, [r7, #32]
 3850 0156 03F11802 		add	r2, r3, #24
 3851 015a BB69     		ldr	r3, [r7, #24]
 3852 015c 9A60     		str	r2, [r3, #8]
 3853 015e 3B6A     		ldr	r3, [r7, #32]
 3854 0160 114A     		ldr	r2, .L315+12
 3855 0162 9A62     		str	r2, [r3, #40]
 3856 0164 104B     		ldr	r3, .L315+12
 3857 0166 1B68     		ldr	r3, [r3]
 3858 0168 0133     		adds	r3, r3, #1
 3859 016a 0F4A     		ldr	r2, .L315+12
 3860 016c 1360     		str	r3, [r2]
 3861              	.L311:
 3862 016e 3B6A     		ldr	r3, [r7, #32]
 3863 0170 DA6A     		ldr	r2, [r3, #44]
 3864 0172 0E4B     		ldr	r3, .L315+16
 3865 0174 1B68     		ldr	r3, [r3]
 3866 0176 DB6A     		ldr	r3, [r3, #44]
 3867 0178 9A42     		cmp	r2, r3
 3868 017a 05D9     		bls	.L312
 3869 017c 0123     		movs	r3, #1
 3870 017e 7B62     		str	r3, [r7, #36]
 3871 0180 0B4B     		ldr	r3, .L315+20
 3872 0182 0122     		movs	r2, #1
 3873 0184 1A60     		str	r2, [r3]
 3874 0186 01E0     		b	.L313
 3875              	.L312:
 3876 0188 0023     		movs	r3, #0
 3877 018a 7B62     		str	r3, [r7, #36]
 3878              	.L313:
 3879 018c 7B6A     		ldr	r3, [r7, #36]
 3880 018e 1846     		mov	r0, r3
 3881 0190 2C37     		adds	r7, r7, #44
 3882 0192 BD46     		mov	sp, r7
 3883              		@ sp needed
 3884 0194 5DF8047B 		ldr	r7, [sp], #4
 3885 0198 7047     		bx	lr
 3886              	.L316:
 3887 019a 00BF     		.align	2
 3888              	.L315:
 3889 019c 00000000 		.word	uxSchedulerSuspended
 3890 01a0 00000000 		.word	uxTopReadyPriority
 3891 01a4 00000000 		.word	pxReadyTasksLists
 3892 01a8 00000000 		.word	xPendingReadyList
 3893 01ac 00000000 		.word	pxCurrentTCB
 3894 01b0 00000000 		.word	xYieldPendings
 3896              		.section	.text.vTaskRemoveFromUnorderedEventList,"ax",%progbits
 3897              		.align	1
 3898              		.global	vTaskRemoveFromUnorderedEventList
 3899              		.syntax unified
 3900              		.thumb
 3901              		.thumb_func
 3903              	vTaskRemoveFromUnorderedEventList:
 3904              		@ args = 0, pretend = 0, frame = 32
 3905              		@ frame_needed = 1, uses_anonymous_args = 0
 3906              		@ link register save eliminated.
 3907 0000 80B4     		push	{r7}
ARM GAS  C:\Users\phamt\AppData\Local\Temp\ccgYGYX4.s 			page 68


 3908 0002 89B0     		sub	sp, sp, #36
 3909 0004 00AF     		add	r7, sp, #0
 3910 0006 7860     		str	r0, [r7, #4]
 3911 0008 3960     		str	r1, [r7]
 3912 000a 5A4B     		ldr	r3, .L327
 3913 000c 1B68     		ldr	r3, [r3]
 3914 000e 002B     		cmp	r3, #0
 3915 0010 0AD1     		bne	.L318
 3916              		.syntax unified
 3917              	@ 217 "FreeRTOS/portable/GCC/ARM_CM4F/portmacro.h" 1
 3918 0012 4FF05003 		   mov r3, #80                                              
 3919 0016 83F31188 	   msr basepri, r3                                         
 3920 001a BFF36F8F 	   isb                                                     
 3921 001e BFF34F8F 	   dsb                                                     
 3922              	
 3923              	@ 0 "" 2
 3924              		.thumb
 3925              		.syntax unified
 3926 0022 FB60     		str	r3, [r7, #12]
 3927 0024 00BF     		nop
 3928              	.L319:
 3929 0026 FEE7     		b	.L319
 3930              	.L318:
 3931 0028 3B68     		ldr	r3, [r7]
 3932 002a 43F00042 		orr	r2, r3, #-2147483648
 3933 002e 7B68     		ldr	r3, [r7, #4]
 3934 0030 1A60     		str	r2, [r3]
 3935 0032 7B68     		ldr	r3, [r7, #4]
 3936 0034 DB68     		ldr	r3, [r3, #12]
 3937 0036 FB61     		str	r3, [r7, #28]
 3938 0038 FB69     		ldr	r3, [r7, #28]
 3939 003a 002B     		cmp	r3, #0
 3940 003c 0AD1     		bne	.L320
 3941              		.syntax unified
 3942              	@ 217 "FreeRTOS/portable/GCC/ARM_CM4F/portmacro.h" 1
 3943 003e 4FF05003 		   mov r3, #80                                              
 3944 0042 83F31188 	   msr basepri, r3                                         
 3945 0046 BFF36F8F 	   isb                                                     
 3946 004a BFF34F8F 	   dsb                                                     
 3947              	
 3948              	@ 0 "" 2
 3949              		.thumb
 3950              		.syntax unified
 3951 004e BB60     		str	r3, [r7, #8]
 3952 0050 00BF     		nop
 3953              	.L321:
 3954 0052 FEE7     		b	.L321
 3955              	.L320:
 3956 0054 7B68     		ldr	r3, [r7, #4]
 3957 0056 1B69     		ldr	r3, [r3, #16]
 3958 0058 BB61     		str	r3, [r7, #24]
 3959 005a 7B68     		ldr	r3, [r7, #4]
 3960 005c 5B68     		ldr	r3, [r3, #4]
 3961 005e 7A68     		ldr	r2, [r7, #4]
 3962 0060 9268     		ldr	r2, [r2, #8]
 3963 0062 9A60     		str	r2, [r3, #8]
 3964 0064 7B68     		ldr	r3, [r7, #4]
ARM GAS  C:\Users\phamt\AppData\Local\Temp\ccgYGYX4.s 			page 69


 3965 0066 9B68     		ldr	r3, [r3, #8]
 3966 0068 7A68     		ldr	r2, [r7, #4]
 3967 006a 5268     		ldr	r2, [r2, #4]
 3968 006c 5A60     		str	r2, [r3, #4]
 3969 006e BB69     		ldr	r3, [r7, #24]
 3970 0070 5B68     		ldr	r3, [r3, #4]
 3971 0072 7A68     		ldr	r2, [r7, #4]
 3972 0074 9A42     		cmp	r2, r3
 3973 0076 03D1     		bne	.L322
 3974 0078 7B68     		ldr	r3, [r7, #4]
 3975 007a 9A68     		ldr	r2, [r3, #8]
 3976 007c BB69     		ldr	r3, [r7, #24]
 3977 007e 5A60     		str	r2, [r3, #4]
 3978              	.L322:
 3979 0080 7B68     		ldr	r3, [r7, #4]
 3980 0082 0022     		movs	r2, #0
 3981 0084 1A61     		str	r2, [r3, #16]
 3982 0086 BB69     		ldr	r3, [r7, #24]
 3983 0088 1B68     		ldr	r3, [r3]
 3984 008a 5A1E     		subs	r2, r3, #1
 3985 008c BB69     		ldr	r3, [r7, #24]
 3986 008e 1A60     		str	r2, [r3]
 3987 0090 FB69     		ldr	r3, [r7, #28]
 3988 0092 5B69     		ldr	r3, [r3, #20]
 3989 0094 7B61     		str	r3, [r7, #20]
 3990 0096 FB69     		ldr	r3, [r7, #28]
 3991 0098 9B68     		ldr	r3, [r3, #8]
 3992 009a FA69     		ldr	r2, [r7, #28]
 3993 009c D268     		ldr	r2, [r2, #12]
 3994 009e 9A60     		str	r2, [r3, #8]
 3995 00a0 FB69     		ldr	r3, [r7, #28]
 3996 00a2 DB68     		ldr	r3, [r3, #12]
 3997 00a4 FA69     		ldr	r2, [r7, #28]
 3998 00a6 9268     		ldr	r2, [r2, #8]
 3999 00a8 5A60     		str	r2, [r3, #4]
 4000 00aa 7B69     		ldr	r3, [r7, #20]
 4001 00ac 5A68     		ldr	r2, [r3, #4]
 4002 00ae FB69     		ldr	r3, [r7, #28]
 4003 00b0 0433     		adds	r3, r3, #4
 4004 00b2 9A42     		cmp	r2, r3
 4005 00b4 03D1     		bne	.L323
 4006 00b6 FB69     		ldr	r3, [r7, #28]
 4007 00b8 DA68     		ldr	r2, [r3, #12]
 4008 00ba 7B69     		ldr	r3, [r7, #20]
 4009 00bc 5A60     		str	r2, [r3, #4]
 4010              	.L323:
 4011 00be FB69     		ldr	r3, [r7, #28]
 4012 00c0 0022     		movs	r2, #0
 4013 00c2 5A61     		str	r2, [r3, #20]
 4014 00c4 7B69     		ldr	r3, [r7, #20]
 4015 00c6 1B68     		ldr	r3, [r3]
 4016 00c8 5A1E     		subs	r2, r3, #1
 4017 00ca 7B69     		ldr	r3, [r7, #20]
 4018 00cc 1A60     		str	r2, [r3]
 4019 00ce FB69     		ldr	r3, [r7, #28]
 4020 00d0 DA6A     		ldr	r2, [r3, #44]
 4021 00d2 294B     		ldr	r3, .L327+4
ARM GAS  C:\Users\phamt\AppData\Local\Temp\ccgYGYX4.s 			page 70


 4022 00d4 1B68     		ldr	r3, [r3]
 4023 00d6 9A42     		cmp	r2, r3
 4024 00d8 03D9     		bls	.L324
 4025 00da FB69     		ldr	r3, [r7, #28]
 4026 00dc DB6A     		ldr	r3, [r3, #44]
 4027 00de 264A     		ldr	r2, .L327+4
 4028 00e0 1360     		str	r3, [r2]
 4029              	.L324:
 4030 00e2 FB69     		ldr	r3, [r7, #28]
 4031 00e4 DA6A     		ldr	r2, [r3, #44]
 4032 00e6 2549     		ldr	r1, .L327+8
 4033 00e8 1346     		mov	r3, r2
 4034 00ea 9B00     		lsls	r3, r3, #2
 4035 00ec 1344     		add	r3, r3, r2
 4036 00ee 9B00     		lsls	r3, r3, #2
 4037 00f0 0B44     		add	r3, r3, r1
 4038 00f2 0433     		adds	r3, r3, #4
 4039 00f4 1B68     		ldr	r3, [r3]
 4040 00f6 3B61     		str	r3, [r7, #16]
 4041 00f8 FB69     		ldr	r3, [r7, #28]
 4042 00fa 3A69     		ldr	r2, [r7, #16]
 4043 00fc 9A60     		str	r2, [r3, #8]
 4044 00fe 3B69     		ldr	r3, [r7, #16]
 4045 0100 9A68     		ldr	r2, [r3, #8]
 4046 0102 FB69     		ldr	r3, [r7, #28]
 4047 0104 DA60     		str	r2, [r3, #12]
 4048 0106 3B69     		ldr	r3, [r7, #16]
 4049 0108 9B68     		ldr	r3, [r3, #8]
 4050 010a FA69     		ldr	r2, [r7, #28]
 4051 010c 0432     		adds	r2, r2, #4
 4052 010e 5A60     		str	r2, [r3, #4]
 4053 0110 FB69     		ldr	r3, [r7, #28]
 4054 0112 1A1D     		adds	r2, r3, #4
 4055 0114 3B69     		ldr	r3, [r7, #16]
 4056 0116 9A60     		str	r2, [r3, #8]
 4057 0118 FB69     		ldr	r3, [r7, #28]
 4058 011a DA6A     		ldr	r2, [r3, #44]
 4059 011c 1346     		mov	r3, r2
 4060 011e 9B00     		lsls	r3, r3, #2
 4061 0120 1344     		add	r3, r3, r2
 4062 0122 9B00     		lsls	r3, r3, #2
 4063 0124 154A     		ldr	r2, .L327+8
 4064 0126 1A44     		add	r2, r2, r3
 4065 0128 FB69     		ldr	r3, [r7, #28]
 4066 012a 5A61     		str	r2, [r3, #20]
 4067 012c FB69     		ldr	r3, [r7, #28]
 4068 012e DA6A     		ldr	r2, [r3, #44]
 4069 0130 1249     		ldr	r1, .L327+8
 4070 0132 1346     		mov	r3, r2
 4071 0134 9B00     		lsls	r3, r3, #2
 4072 0136 1344     		add	r3, r3, r2
 4073 0138 9B00     		lsls	r3, r3, #2
 4074 013a 0B44     		add	r3, r3, r1
 4075 013c 1B68     		ldr	r3, [r3]
 4076 013e FA69     		ldr	r2, [r7, #28]
 4077 0140 D26A     		ldr	r2, [r2, #44]
 4078 0142 591C     		adds	r1, r3, #1
ARM GAS  C:\Users\phamt\AppData\Local\Temp\ccgYGYX4.s 			page 71


 4079 0144 0D48     		ldr	r0, .L327+8
 4080 0146 1346     		mov	r3, r2
 4081 0148 9B00     		lsls	r3, r3, #2
 4082 014a 1344     		add	r3, r3, r2
 4083 014c 9B00     		lsls	r3, r3, #2
 4084 014e 0344     		add	r3, r3, r0
 4085 0150 1960     		str	r1, [r3]
 4086 0152 FB69     		ldr	r3, [r7, #28]
 4087 0154 DA6A     		ldr	r2, [r3, #44]
 4088 0156 0A4B     		ldr	r3, .L327+12
 4089 0158 1B68     		ldr	r3, [r3]
 4090 015a DB6A     		ldr	r3, [r3, #44]
 4091 015c 9A42     		cmp	r2, r3
 4092 015e 02D9     		bls	.L326
 4093 0160 084B     		ldr	r3, .L327+16
 4094 0162 0122     		movs	r2, #1
 4095 0164 1A60     		str	r2, [r3]
 4096              	.L326:
 4097 0166 00BF     		nop
 4098 0168 2437     		adds	r7, r7, #36
 4099 016a BD46     		mov	sp, r7
 4100              		@ sp needed
 4101 016c 5DF8047B 		ldr	r7, [sp], #4
 4102 0170 7047     		bx	lr
 4103              	.L328:
 4104 0172 00BF     		.align	2
 4105              	.L327:
 4106 0174 00000000 		.word	uxSchedulerSuspended
 4107 0178 00000000 		.word	uxTopReadyPriority
 4108 017c 00000000 		.word	pxReadyTasksLists
 4109 0180 00000000 		.word	pxCurrentTCB
 4110 0184 00000000 		.word	xYieldPendings
 4112              		.section	.text.vTaskSetTimeOutState,"ax",%progbits
 4113              		.align	1
 4114              		.global	vTaskSetTimeOutState
 4115              		.syntax unified
 4116              		.thumb
 4117              		.thumb_func
 4119              	vTaskSetTimeOutState:
 4120              		@ args = 0, pretend = 0, frame = 16
 4121              		@ frame_needed = 1, uses_anonymous_args = 0
 4122 0000 80B5     		push	{r7, lr}
 4123 0002 84B0     		sub	sp, sp, #16
 4124 0004 00AF     		add	r7, sp, #0
 4125 0006 7860     		str	r0, [r7, #4]
 4126 0008 7B68     		ldr	r3, [r7, #4]
 4127 000a 002B     		cmp	r3, #0
 4128 000c 0AD1     		bne	.L330
 4129              		.syntax unified
 4130              	@ 217 "FreeRTOS/portable/GCC/ARM_CM4F/portmacro.h" 1
 4131 000e 4FF05003 		   mov r3, #80                                              
 4132 0012 83F31188 	   msr basepri, r3                                         
 4133 0016 BFF36F8F 	   isb                                                     
 4134 001a BFF34F8F 	   dsb                                                     
 4135              	
 4136              	@ 0 "" 2
 4137              		.thumb
ARM GAS  C:\Users\phamt\AppData\Local\Temp\ccgYGYX4.s 			page 72


 4138              		.syntax unified
 4139 001e FB60     		str	r3, [r7, #12]
 4140 0020 00BF     		nop
 4141              	.L331:
 4142 0022 FEE7     		b	.L331
 4143              	.L330:
 4144 0024 FFF7FEFF 		bl	vPortEnterCritical
 4145 0028 064B     		ldr	r3, .L332
 4146 002a 1A68     		ldr	r2, [r3]
 4147 002c 7B68     		ldr	r3, [r7, #4]
 4148 002e 1A60     		str	r2, [r3]
 4149 0030 054B     		ldr	r3, .L332+4
 4150 0032 1A68     		ldr	r2, [r3]
 4151 0034 7B68     		ldr	r3, [r7, #4]
 4152 0036 5A60     		str	r2, [r3, #4]
 4153 0038 FFF7FEFF 		bl	vPortExitCritical
 4154 003c 00BF     		nop
 4155 003e 1037     		adds	r7, r7, #16
 4156 0040 BD46     		mov	sp, r7
 4157              		@ sp needed
 4158 0042 80BD     		pop	{r7, pc}
 4159              	.L333:
 4160              		.align	2
 4161              	.L332:
 4162 0044 00000000 		.word	xNumOfOverflows
 4163 0048 00000000 		.word	xTickCount
 4165              		.section	.text.vTaskInternalSetTimeOutState,"ax",%progbits
 4166              		.align	1
 4167              		.global	vTaskInternalSetTimeOutState
 4168              		.syntax unified
 4169              		.thumb
 4170              		.thumb_func
 4172              	vTaskInternalSetTimeOutState:
 4173              		@ args = 0, pretend = 0, frame = 8
 4174              		@ frame_needed = 1, uses_anonymous_args = 0
 4175              		@ link register save eliminated.
 4176 0000 80B4     		push	{r7}
 4177 0002 83B0     		sub	sp, sp, #12
 4178 0004 00AF     		add	r7, sp, #0
 4179 0006 7860     		str	r0, [r7, #4]
 4180 0008 064B     		ldr	r3, .L335
 4181 000a 1A68     		ldr	r2, [r3]
 4182 000c 7B68     		ldr	r3, [r7, #4]
 4183 000e 1A60     		str	r2, [r3]
 4184 0010 054B     		ldr	r3, .L335+4
 4185 0012 1A68     		ldr	r2, [r3]
 4186 0014 7B68     		ldr	r3, [r7, #4]
 4187 0016 5A60     		str	r2, [r3, #4]
 4188 0018 00BF     		nop
 4189 001a 0C37     		adds	r7, r7, #12
 4190 001c BD46     		mov	sp, r7
 4191              		@ sp needed
 4192 001e 5DF8047B 		ldr	r7, [sp], #4
 4193 0022 7047     		bx	lr
 4194              	.L336:
 4195              		.align	2
 4196              	.L335:
ARM GAS  C:\Users\phamt\AppData\Local\Temp\ccgYGYX4.s 			page 73


 4197 0024 00000000 		.word	xNumOfOverflows
 4198 0028 00000000 		.word	xTickCount
 4200              		.section	.text.xTaskCheckForTimeOut,"ax",%progbits
 4201              		.align	1
 4202              		.global	xTaskCheckForTimeOut
 4203              		.syntax unified
 4204              		.thumb
 4205              		.thumb_func
 4207              	xTaskCheckForTimeOut:
 4208              		@ args = 0, pretend = 0, frame = 32
 4209              		@ frame_needed = 1, uses_anonymous_args = 0
 4210 0000 80B5     		push	{r7, lr}
 4211 0002 88B0     		sub	sp, sp, #32
 4212 0004 00AF     		add	r7, sp, #0
 4213 0006 7860     		str	r0, [r7, #4]
 4214 0008 3960     		str	r1, [r7]
 4215 000a 7B68     		ldr	r3, [r7, #4]
 4216 000c 002B     		cmp	r3, #0
 4217 000e 0AD1     		bne	.L338
 4218              		.syntax unified
 4219              	@ 217 "FreeRTOS/portable/GCC/ARM_CM4F/portmacro.h" 1
 4220 0010 4FF05003 		   mov r3, #80                                              
 4221 0014 83F31188 	   msr basepri, r3                                         
 4222 0018 BFF36F8F 	   isb                                                     
 4223 001c BFF34F8F 	   dsb                                                     
 4224              	
 4225              	@ 0 "" 2
 4226              		.thumb
 4227              		.syntax unified
 4228 0020 3B61     		str	r3, [r7, #16]
 4229 0022 00BF     		nop
 4230              	.L339:
 4231 0024 FEE7     		b	.L339
 4232              	.L338:
 4233 0026 3B68     		ldr	r3, [r7]
 4234 0028 002B     		cmp	r3, #0
 4235 002a 0AD1     		bne	.L340
 4236              		.syntax unified
 4237              	@ 217 "FreeRTOS/portable/GCC/ARM_CM4F/portmacro.h" 1
 4238 002c 4FF05003 		   mov r3, #80                                              
 4239 0030 83F31188 	   msr basepri, r3                                         
 4240 0034 BFF36F8F 	   isb                                                     
 4241 0038 BFF34F8F 	   dsb                                                     
 4242              	
 4243              	@ 0 "" 2
 4244              		.thumb
 4245              		.syntax unified
 4246 003c FB60     		str	r3, [r7, #12]
 4247 003e 00BF     		nop
 4248              	.L341:
 4249 0040 FEE7     		b	.L341
 4250              	.L340:
 4251 0042 FFF7FEFF 		bl	vPortEnterCritical
 4252 0046 1F4B     		ldr	r3, .L347
 4253 0048 1B68     		ldr	r3, [r3]
 4254 004a BB61     		str	r3, [r7, #24]
 4255 004c 7B68     		ldr	r3, [r7, #4]
ARM GAS  C:\Users\phamt\AppData\Local\Temp\ccgYGYX4.s 			page 74


 4256 004e 5B68     		ldr	r3, [r3, #4]
 4257 0050 BA69     		ldr	r2, [r7, #24]
 4258 0052 D31A     		subs	r3, r2, r3
 4259 0054 7B61     		str	r3, [r7, #20]
 4260 0056 3B68     		ldr	r3, [r7]
 4261 0058 1B68     		ldr	r3, [r3]
 4262 005a B3F1FF3F 		cmp	r3, #-1
 4263 005e 02D1     		bne	.L342
 4264 0060 0023     		movs	r3, #0
 4265 0062 FB61     		str	r3, [r7, #28]
 4266 0064 26E0     		b	.L343
 4267              	.L342:
 4268 0066 7B68     		ldr	r3, [r7, #4]
 4269 0068 1A68     		ldr	r2, [r3]
 4270 006a 174B     		ldr	r3, .L347+4
 4271 006c 1B68     		ldr	r3, [r3]
 4272 006e 9A42     		cmp	r2, r3
 4273 0070 0AD0     		beq	.L344
 4274 0072 7B68     		ldr	r3, [r7, #4]
 4275 0074 5B68     		ldr	r3, [r3, #4]
 4276 0076 BA69     		ldr	r2, [r7, #24]
 4277 0078 9A42     		cmp	r2, r3
 4278 007a 05D3     		bcc	.L344
 4279 007c 0123     		movs	r3, #1
 4280 007e FB61     		str	r3, [r7, #28]
 4281 0080 3B68     		ldr	r3, [r7]
 4282 0082 0022     		movs	r2, #0
 4283 0084 1A60     		str	r2, [r3]
 4284 0086 15E0     		b	.L343
 4285              	.L344:
 4286 0088 3B68     		ldr	r3, [r7]
 4287 008a 1B68     		ldr	r3, [r3]
 4288 008c 7A69     		ldr	r2, [r7, #20]
 4289 008e 9A42     		cmp	r2, r3
 4290 0090 0BD2     		bcs	.L345
 4291 0092 3B68     		ldr	r3, [r7]
 4292 0094 1A68     		ldr	r2, [r3]
 4293 0096 7B69     		ldr	r3, [r7, #20]
 4294 0098 D21A     		subs	r2, r2, r3
 4295 009a 3B68     		ldr	r3, [r7]
 4296 009c 1A60     		str	r2, [r3]
 4297 009e 7868     		ldr	r0, [r7, #4]
 4298 00a0 FFF7FEFF 		bl	vTaskInternalSetTimeOutState
 4299 00a4 0023     		movs	r3, #0
 4300 00a6 FB61     		str	r3, [r7, #28]
 4301 00a8 04E0     		b	.L343
 4302              	.L345:
 4303 00aa 3B68     		ldr	r3, [r7]
 4304 00ac 0022     		movs	r2, #0
 4305 00ae 1A60     		str	r2, [r3]
 4306 00b0 0123     		movs	r3, #1
 4307 00b2 FB61     		str	r3, [r7, #28]
 4308              	.L343:
 4309 00b4 FFF7FEFF 		bl	vPortExitCritical
 4310 00b8 FB69     		ldr	r3, [r7, #28]
 4311 00ba 1846     		mov	r0, r3
 4312 00bc 2037     		adds	r7, r7, #32
ARM GAS  C:\Users\phamt\AppData\Local\Temp\ccgYGYX4.s 			page 75


 4313 00be BD46     		mov	sp, r7
 4314              		@ sp needed
 4315 00c0 80BD     		pop	{r7, pc}
 4316              	.L348:
 4317 00c2 00BF     		.align	2
 4318              	.L347:
 4319 00c4 00000000 		.word	xTickCount
 4320 00c8 00000000 		.word	xNumOfOverflows
 4322              		.section	.text.vTaskMissedYield,"ax",%progbits
 4323              		.align	1
 4324              		.global	vTaskMissedYield
 4325              		.syntax unified
 4326              		.thumb
 4327              		.thumb_func
 4329              	vTaskMissedYield:
 4330              		@ args = 0, pretend = 0, frame = 0
 4331              		@ frame_needed = 1, uses_anonymous_args = 0
 4332              		@ link register save eliminated.
 4333 0000 80B4     		push	{r7}
 4334 0002 00AF     		add	r7, sp, #0
 4335 0004 034B     		ldr	r3, .L350
 4336 0006 0122     		movs	r2, #1
 4337 0008 1A60     		str	r2, [r3]
 4338 000a 00BF     		nop
 4339 000c BD46     		mov	sp, r7
 4340              		@ sp needed
 4341 000e 5DF8047B 		ldr	r7, [sp], #4
 4342 0012 7047     		bx	lr
 4343              	.L351:
 4344              		.align	2
 4345              	.L350:
 4346 0014 00000000 		.word	xYieldPendings
 4348              		.section	.text.uxTaskGetTaskNumber,"ax",%progbits
 4349              		.align	1
 4350              		.global	uxTaskGetTaskNumber
 4351              		.syntax unified
 4352              		.thumb
 4353              		.thumb_func
 4355              	uxTaskGetTaskNumber:
 4356              		@ args = 0, pretend = 0, frame = 16
 4357              		@ frame_needed = 1, uses_anonymous_args = 0
 4358              		@ link register save eliminated.
 4359 0000 80B4     		push	{r7}
 4360 0002 85B0     		sub	sp, sp, #20
 4361 0004 00AF     		add	r7, sp, #0
 4362 0006 7860     		str	r0, [r7, #4]
 4363 0008 7B68     		ldr	r3, [r7, #4]
 4364 000a 002B     		cmp	r3, #0
 4365 000c 05D0     		beq	.L353
 4366 000e 7B68     		ldr	r3, [r7, #4]
 4367 0010 BB60     		str	r3, [r7, #8]
 4368 0012 BB68     		ldr	r3, [r7, #8]
 4369 0014 9B6C     		ldr	r3, [r3, #72]
 4370 0016 FB60     		str	r3, [r7, #12]
 4371 0018 01E0     		b	.L354
 4372              	.L353:
 4373 001a 0023     		movs	r3, #0
ARM GAS  C:\Users\phamt\AppData\Local\Temp\ccgYGYX4.s 			page 76


 4374 001c FB60     		str	r3, [r7, #12]
 4375              	.L354:
 4376 001e FB68     		ldr	r3, [r7, #12]
 4377 0020 1846     		mov	r0, r3
 4378 0022 1437     		adds	r7, r7, #20
 4379 0024 BD46     		mov	sp, r7
 4380              		@ sp needed
 4381 0026 5DF8047B 		ldr	r7, [sp], #4
 4382 002a 7047     		bx	lr
 4384              		.section	.text.vTaskSetTaskNumber,"ax",%progbits
 4385              		.align	1
 4386              		.global	vTaskSetTaskNumber
 4387              		.syntax unified
 4388              		.thumb
 4389              		.thumb_func
 4391              	vTaskSetTaskNumber:
 4392              		@ args = 0, pretend = 0, frame = 16
 4393              		@ frame_needed = 1, uses_anonymous_args = 0
 4394              		@ link register save eliminated.
 4395 0000 80B4     		push	{r7}
 4396 0002 85B0     		sub	sp, sp, #20
 4397 0004 00AF     		add	r7, sp, #0
 4398 0006 7860     		str	r0, [r7, #4]
 4399 0008 3960     		str	r1, [r7]
 4400 000a 7B68     		ldr	r3, [r7, #4]
 4401 000c 002B     		cmp	r3, #0
 4402 000e 04D0     		beq	.L358
 4403 0010 7B68     		ldr	r3, [r7, #4]
 4404 0012 FB60     		str	r3, [r7, #12]
 4405 0014 FB68     		ldr	r3, [r7, #12]
 4406 0016 3A68     		ldr	r2, [r7]
 4407 0018 9A64     		str	r2, [r3, #72]
 4408              	.L358:
 4409 001a 00BF     		nop
 4410 001c 1437     		adds	r7, r7, #20
 4411 001e BD46     		mov	sp, r7
 4412              		@ sp needed
 4413 0020 5DF8047B 		ldr	r7, [sp], #4
 4414 0024 7047     		bx	lr
 4416              		.section	.text.prvIdleTask,"ax",%progbits
 4417              		.align	1
 4418              		.syntax unified
 4419              		.thumb
 4420              		.thumb_func
 4422              	prvIdleTask:
 4423              		@ args = 0, pretend = 0, frame = 8
 4424              		@ frame_needed = 1, uses_anonymous_args = 0
 4425 0000 80B5     		push	{r7, lr}
 4426 0002 82B0     		sub	sp, sp, #8
 4427 0004 00AF     		add	r7, sp, #0
 4428 0006 7860     		str	r0, [r7, #4]
 4429              	.L361:
 4430 0008 FFF7FEFF 		bl	prvCheckTasksWaitingTermination
 4431 000c 064B     		ldr	r3, .L362
 4432 000e 1B68     		ldr	r3, [r3]
 4433 0010 012B     		cmp	r3, #1
 4434 0012 F9D9     		bls	.L361
ARM GAS  C:\Users\phamt\AppData\Local\Temp\ccgYGYX4.s 			page 77


 4435 0014 054B     		ldr	r3, .L362+4
 4436 0016 4FF08052 		mov	r2, #268435456
 4437 001a 1A60     		str	r2, [r3]
 4438              		.syntax unified
 4439              	@ 5811 "FreeRTOS/tasks.c" 1
 4440 001c BFF34F8F 		dsb
 4441              	@ 0 "" 2
 4442              	@ 5811 "FreeRTOS/tasks.c" 1
 4443 0020 BFF36F8F 		isb
 4444              	@ 0 "" 2
 4445              		.thumb
 4446              		.syntax unified
 4447 0024 F0E7     		b	.L361
 4448              	.L363:
 4449 0026 00BF     		.align	2
 4450              	.L362:
 4451 0028 00000000 		.word	pxReadyTasksLists
 4452 002c 04ED00E0 		.word	-536810236
 4454              		.section	.text.prvInitialiseTaskLists,"ax",%progbits
 4455              		.align	1
 4456              		.syntax unified
 4457              		.thumb
 4458              		.thumb_func
 4460              	prvInitialiseTaskLists:
 4461              		@ args = 0, pretend = 0, frame = 8
 4462              		@ frame_needed = 1, uses_anonymous_args = 0
 4463 0000 80B5     		push	{r7, lr}
 4464 0002 82B0     		sub	sp, sp, #8
 4465 0004 00AF     		add	r7, sp, #0
 4466 0006 0023     		movs	r3, #0
 4467 0008 7B60     		str	r3, [r7, #4]
 4468 000a 0CE0     		b	.L365
 4469              	.L366:
 4470 000c 7A68     		ldr	r2, [r7, #4]
 4471 000e 1346     		mov	r3, r2
 4472 0010 9B00     		lsls	r3, r3, #2
 4473 0012 1344     		add	r3, r3, r2
 4474 0014 9B00     		lsls	r3, r3, #2
 4475 0016 124A     		ldr	r2, .L367
 4476 0018 1344     		add	r3, r3, r2
 4477 001a 1846     		mov	r0, r3
 4478 001c FFF7FEFF 		bl	vListInitialise
 4479 0020 7B68     		ldr	r3, [r7, #4]
 4480 0022 0133     		adds	r3, r3, #1
 4481 0024 7B60     		str	r3, [r7, #4]
 4482              	.L365:
 4483 0026 7B68     		ldr	r3, [r7, #4]
 4484 0028 372B     		cmp	r3, #55
 4485 002a EFD9     		bls	.L366
 4486 002c 0D48     		ldr	r0, .L367+4
 4487 002e FFF7FEFF 		bl	vListInitialise
 4488 0032 0D48     		ldr	r0, .L367+8
 4489 0034 FFF7FEFF 		bl	vListInitialise
 4490 0038 0C48     		ldr	r0, .L367+12
 4491 003a FFF7FEFF 		bl	vListInitialise
 4492 003e 0C48     		ldr	r0, .L367+16
 4493 0040 FFF7FEFF 		bl	vListInitialise
ARM GAS  C:\Users\phamt\AppData\Local\Temp\ccgYGYX4.s 			page 78


 4494 0044 0B48     		ldr	r0, .L367+20
 4495 0046 FFF7FEFF 		bl	vListInitialise
 4496 004a 0B4B     		ldr	r3, .L367+24
 4497 004c 054A     		ldr	r2, .L367+4
 4498 004e 1A60     		str	r2, [r3]
 4499 0050 0A4B     		ldr	r3, .L367+28
 4500 0052 054A     		ldr	r2, .L367+8
 4501 0054 1A60     		str	r2, [r3]
 4502 0056 00BF     		nop
 4503 0058 0837     		adds	r7, r7, #8
 4504 005a BD46     		mov	sp, r7
 4505              		@ sp needed
 4506 005c 80BD     		pop	{r7, pc}
 4507              	.L368:
 4508 005e 00BF     		.align	2
 4509              	.L367:
 4510 0060 00000000 		.word	pxReadyTasksLists
 4511 0064 00000000 		.word	xDelayedTaskList1
 4512 0068 00000000 		.word	xDelayedTaskList2
 4513 006c 00000000 		.word	xPendingReadyList
 4514 0070 00000000 		.word	xTasksWaitingTermination
 4515 0074 00000000 		.word	xSuspendedTaskList
 4516 0078 00000000 		.word	pxDelayedTaskList
 4517 007c 00000000 		.word	pxOverflowDelayedTaskList
 4519              		.section	.text.prvCheckTasksWaitingTermination,"ax",%progbits
 4520              		.align	1
 4521              		.syntax unified
 4522              		.thumb
 4523              		.thumb_func
 4525              	prvCheckTasksWaitingTermination:
 4526              		@ args = 0, pretend = 0, frame = 8
 4527              		@ frame_needed = 1, uses_anonymous_args = 0
 4528 0000 80B5     		push	{r7, lr}
 4529 0002 82B0     		sub	sp, sp, #8
 4530 0004 00AF     		add	r7, sp, #0
 4531 0006 19E0     		b	.L370
 4532              	.L371:
 4533 0008 FFF7FEFF 		bl	vPortEnterCritical
 4534 000c 104B     		ldr	r3, .L372
 4535 000e DB68     		ldr	r3, [r3, #12]
 4536 0010 DB68     		ldr	r3, [r3, #12]
 4537 0012 7B60     		str	r3, [r7, #4]
 4538 0014 7B68     		ldr	r3, [r7, #4]
 4539 0016 0433     		adds	r3, r3, #4
 4540 0018 1846     		mov	r0, r3
 4541 001a FFF7FEFF 		bl	uxListRemove
 4542 001e 0D4B     		ldr	r3, .L372+4
 4543 0020 1B68     		ldr	r3, [r3]
 4544 0022 013B     		subs	r3, r3, #1
 4545 0024 0B4A     		ldr	r2, .L372+4
 4546 0026 1360     		str	r3, [r2]
 4547 0028 0B4B     		ldr	r3, .L372+8
 4548 002a 1B68     		ldr	r3, [r3]
 4549 002c 013B     		subs	r3, r3, #1
 4550 002e 0A4A     		ldr	r2, .L372+8
 4551 0030 1360     		str	r3, [r2]
 4552 0032 FFF7FEFF 		bl	vPortExitCritical
ARM GAS  C:\Users\phamt\AppData\Local\Temp\ccgYGYX4.s 			page 79


 4553 0036 7868     		ldr	r0, [r7, #4]
 4554 0038 FFF7FEFF 		bl	prvDeleteTCB
 4555              	.L370:
 4556 003c 064B     		ldr	r3, .L372+8
 4557 003e 1B68     		ldr	r3, [r3]
 4558 0040 002B     		cmp	r3, #0
 4559 0042 E1D1     		bne	.L371
 4560 0044 00BF     		nop
 4561 0046 00BF     		nop
 4562 0048 0837     		adds	r7, r7, #8
 4563 004a BD46     		mov	sp, r7
 4564              		@ sp needed
 4565 004c 80BD     		pop	{r7, pc}
 4566              	.L373:
 4567 004e 00BF     		.align	2
 4568              	.L372:
 4569 0050 00000000 		.word	xTasksWaitingTermination
 4570 0054 00000000 		.word	uxCurrentNumberOfTasks
 4571 0058 00000000 		.word	uxDeletedTasksWaitingCleanUp
 4573              		.section	.text.vTaskGetInfo,"ax",%progbits
 4574              		.align	1
 4575              		.global	vTaskGetInfo
 4576              		.syntax unified
 4577              		.thumb
 4578              		.thumb_func
 4580              	vTaskGetInfo:
 4581              		@ args = 0, pretend = 0, frame = 24
 4582              		@ frame_needed = 1, uses_anonymous_args = 0
 4583 0000 80B5     		push	{r7, lr}
 4584 0002 86B0     		sub	sp, sp, #24
 4585 0004 00AF     		add	r7, sp, #0
 4586 0006 F860     		str	r0, [r7, #12]
 4587 0008 B960     		str	r1, [r7, #8]
 4588 000a 7A60     		str	r2, [r7, #4]
 4589 000c FB70     		strb	r3, [r7, #3]
 4590 000e FB68     		ldr	r3, [r7, #12]
 4591 0010 002B     		cmp	r3, #0
 4592 0012 02D1     		bne	.L375
 4593 0014 3C4B     		ldr	r3, .L390
 4594 0016 1B68     		ldr	r3, [r3]
 4595 0018 00E0     		b	.L376
 4596              	.L375:
 4597 001a FB68     		ldr	r3, [r7, #12]
 4598              	.L376:
 4599 001c 3B61     		str	r3, [r7, #16]
 4600 001e BB68     		ldr	r3, [r7, #8]
 4601 0020 3A69     		ldr	r2, [r7, #16]
 4602 0022 1A60     		str	r2, [r3]
 4603 0024 3B69     		ldr	r3, [r7, #16]
 4604 0026 03F13402 		add	r2, r3, #52
 4605 002a BB68     		ldr	r3, [r7, #8]
 4606 002c 5A60     		str	r2, [r3, #4]
 4607 002e 3B69     		ldr	r3, [r7, #16]
 4608 0030 DA6A     		ldr	r2, [r3, #44]
 4609 0032 BB68     		ldr	r3, [r7, #8]
 4610 0034 1A61     		str	r2, [r3, #16]
 4611 0036 3B69     		ldr	r3, [r7, #16]
ARM GAS  C:\Users\phamt\AppData\Local\Temp\ccgYGYX4.s 			page 80


 4612 0038 1A6B     		ldr	r2, [r3, #48]
 4613 003a BB68     		ldr	r3, [r7, #8]
 4614 003c DA61     		str	r2, [r3, #28]
 4615 003e 3B69     		ldr	r3, [r7, #16]
 4616 0040 5A6C     		ldr	r2, [r3, #68]
 4617 0042 BB68     		ldr	r3, [r7, #8]
 4618 0044 9A60     		str	r2, [r3, #8]
 4619 0046 3B69     		ldr	r3, [r7, #16]
 4620 0048 DA6C     		ldr	r2, [r3, #76]
 4621 004a BB68     		ldr	r3, [r7, #8]
 4622 004c 5A61     		str	r2, [r3, #20]
 4623 004e BB68     		ldr	r3, [r7, #8]
 4624 0050 0022     		movs	r2, #0
 4625 0052 9A61     		str	r2, [r3, #24]
 4626 0054 FB78     		ldrb	r3, [r7, #3]	@ zero_extendqisi2
 4627 0056 052B     		cmp	r3, #5
 4628 0058 3CD0     		beq	.L377
 4629 005a 2B4B     		ldr	r3, .L390
 4630 005c 1B68     		ldr	r3, [r3]
 4631 005e 3A69     		ldr	r2, [r7, #16]
 4632 0060 9A42     		cmp	r2, r3
 4633 0062 03D1     		bne	.L378
 4634 0064 BB68     		ldr	r3, [r7, #8]
 4635 0066 0022     		movs	r2, #0
 4636 0068 1A73     		strb	r2, [r3, #12]
 4637 006a 3AE0     		b	.L379
 4638              	.L378:
 4639 006c BB68     		ldr	r3, [r7, #8]
 4640 006e FA78     		ldrb	r2, [r7, #3]
 4641 0070 1A73     		strb	r2, [r3, #12]
 4642 0072 FB78     		ldrb	r3, [r7, #3]	@ zero_extendqisi2
 4643 0074 032B     		cmp	r3, #3
 4644 0076 20D1     		bne	.L380
 4645 0078 FFF7FEFF 		bl	vTaskSuspendAll
 4646 007c 3B69     		ldr	r3, [r7, #16]
 4647 007e 9B6A     		ldr	r3, [r3, #40]
 4648 0080 002B     		cmp	r3, #0
 4649 0082 03D0     		beq	.L381
 4650 0084 BB68     		ldr	r3, [r7, #8]
 4651 0086 0222     		movs	r2, #2
 4652 0088 1A73     		strb	r2, [r3, #12]
 4653 008a 14E0     		b	.L382
 4654              	.L381:
 4655 008c 0023     		movs	r3, #0
 4656 008e 7B61     		str	r3, [r7, #20]
 4657 0090 0EE0     		b	.L383
 4658              	.L385:
 4659 0092 3A69     		ldr	r2, [r7, #16]
 4660 0094 7B69     		ldr	r3, [r7, #20]
 4661 0096 1344     		add	r3, r3, r2
 4662 0098 5833     		adds	r3, r3, #88
 4663 009a 1B78     		ldrb	r3, [r3]
 4664 009c DBB2     		uxtb	r3, r3
 4665 009e 012B     		cmp	r3, #1
 4666 00a0 03D1     		bne	.L384
 4667 00a2 BB68     		ldr	r3, [r7, #8]
 4668 00a4 0222     		movs	r2, #2
ARM GAS  C:\Users\phamt\AppData\Local\Temp\ccgYGYX4.s 			page 81


 4669 00a6 1A73     		strb	r2, [r3, #12]
 4670 00a8 05E0     		b	.L382
 4671              	.L384:
 4672 00aa 7B69     		ldr	r3, [r7, #20]
 4673 00ac 0133     		adds	r3, r3, #1
 4674 00ae 7B61     		str	r3, [r7, #20]
 4675              	.L383:
 4676 00b0 7B69     		ldr	r3, [r7, #20]
 4677 00b2 002B     		cmp	r3, #0
 4678 00b4 EDDD     		ble	.L385
 4679              	.L382:
 4680 00b6 FFF7FEFF 		bl	xTaskResumeAll
 4681              	.L380:
 4682 00ba FFF7FEFF 		bl	vPortEnterCritical
 4683 00be 3B69     		ldr	r3, [r7, #16]
 4684 00c0 9B6A     		ldr	r3, [r3, #40]
 4685 00c2 124A     		ldr	r2, .L390+4
 4686 00c4 9342     		cmp	r3, r2
 4687 00c6 02D1     		bne	.L386
 4688 00c8 BB68     		ldr	r3, [r7, #8]
 4689 00ca 0122     		movs	r2, #1
 4690 00cc 1A73     		strb	r2, [r3, #12]
 4691              	.L386:
 4692 00ce FFF7FEFF 		bl	vPortExitCritical
 4693 00d2 06E0     		b	.L379
 4694              	.L377:
 4695 00d4 3869     		ldr	r0, [r7, #16]
 4696 00d6 FFF7FEFF 		bl	eTaskGetState
 4697 00da 0346     		mov	r3, r0
 4698 00dc 1A46     		mov	r2, r3
 4699 00de BB68     		ldr	r3, [r7, #8]
 4700 00e0 1A73     		strb	r2, [r3, #12]
 4701              	.L379:
 4702 00e2 7B68     		ldr	r3, [r7, #4]
 4703 00e4 002B     		cmp	r3, #0
 4704 00e6 08D0     		beq	.L387
 4705 00e8 3B69     		ldr	r3, [r7, #16]
 4706 00ea 1B6B     		ldr	r3, [r3, #48]
 4707 00ec 1846     		mov	r0, r3
 4708 00ee FFF7FEFF 		bl	prvTaskCheckFreeStackSpace
 4709 00f2 0246     		mov	r2, r0
 4710 00f4 BB68     		ldr	r3, [r7, #8]
 4711 00f6 1A62     		str	r2, [r3, #32]
 4712 00f8 02E0     		b	.L389
 4713              	.L387:
 4714 00fa BB68     		ldr	r3, [r7, #8]
 4715 00fc 0022     		movs	r2, #0
 4716 00fe 1A62     		str	r2, [r3, #32]
 4717              	.L389:
 4718 0100 00BF     		nop
 4719 0102 1837     		adds	r7, r7, #24
 4720 0104 BD46     		mov	sp, r7
 4721              		@ sp needed
 4722 0106 80BD     		pop	{r7, pc}
 4723              	.L391:
 4724              		.align	2
 4725              	.L390:
ARM GAS  C:\Users\phamt\AppData\Local\Temp\ccgYGYX4.s 			page 82


 4726 0108 00000000 		.word	pxCurrentTCB
 4727 010c 00000000 		.word	xPendingReadyList
 4729              		.section	.text.prvListTasksWithinSingleList,"ax",%progbits
 4730              		.align	1
 4731              		.syntax unified
 4732              		.thumb
 4733              		.thumb_func
 4735              	prvListTasksWithinSingleList:
 4736              		@ args = 0, pretend = 0, frame = 32
 4737              		@ frame_needed = 1, uses_anonymous_args = 0
 4738 0000 80B5     		push	{r7, lr}
 4739 0002 88B0     		sub	sp, sp, #32
 4740 0004 00AF     		add	r7, sp, #0
 4741 0006 F860     		str	r0, [r7, #12]
 4742 0008 B960     		str	r1, [r7, #8]
 4743 000a 1346     		mov	r3, r2
 4744 000c FB71     		strb	r3, [r7, #7]
 4745 000e 0023     		movs	r3, #0
 4746 0010 FB61     		str	r3, [r7, #28]
 4747 0012 BB68     		ldr	r3, [r7, #8]
 4748 0014 0833     		adds	r3, r3, #8
 4749 0016 7B61     		str	r3, [r7, #20]
 4750 0018 0023     		movs	r3, #0
 4751 001a 3B61     		str	r3, [r7, #16]
 4752 001c BB68     		ldr	r3, [r7, #8]
 4753 001e 1B68     		ldr	r3, [r3]
 4754 0020 002B     		cmp	r3, #0
 4755 0022 1DD0     		beq	.L393
 4756 0024 BB68     		ldr	r3, [r7, #8]
 4757 0026 DB68     		ldr	r3, [r3, #12]
 4758 0028 BB61     		str	r3, [r7, #24]
 4759 002a 15E0     		b	.L394
 4760              	.L395:
 4761 002c BB69     		ldr	r3, [r7, #24]
 4762 002e DB68     		ldr	r3, [r3, #12]
 4763 0030 3B61     		str	r3, [r7, #16]
 4764 0032 FA69     		ldr	r2, [r7, #28]
 4765 0034 1346     		mov	r3, r2
 4766 0036 DB00     		lsls	r3, r3, #3
 4767 0038 1344     		add	r3, r3, r2
 4768 003a 9B00     		lsls	r3, r3, #2
 4769 003c 1A46     		mov	r2, r3
 4770 003e FB68     		ldr	r3, [r7, #12]
 4771 0040 9918     		adds	r1, r3, r2
 4772 0042 FB79     		ldrb	r3, [r7, #7]	@ zero_extendqisi2
 4773 0044 0122     		movs	r2, #1
 4774 0046 3869     		ldr	r0, [r7, #16]
 4775 0048 FFF7FEFF 		bl	vTaskGetInfo
 4776 004c FB69     		ldr	r3, [r7, #28]
 4777 004e 0133     		adds	r3, r3, #1
 4778 0050 FB61     		str	r3, [r7, #28]
 4779 0052 BB69     		ldr	r3, [r7, #24]
 4780 0054 5B68     		ldr	r3, [r3, #4]
 4781 0056 BB61     		str	r3, [r7, #24]
 4782              	.L394:
 4783 0058 BA69     		ldr	r2, [r7, #24]
 4784 005a 7B69     		ldr	r3, [r7, #20]
ARM GAS  C:\Users\phamt\AppData\Local\Temp\ccgYGYX4.s 			page 83


 4785 005c 9A42     		cmp	r2, r3
 4786 005e E5D1     		bne	.L395
 4787              	.L393:
 4788 0060 FB69     		ldr	r3, [r7, #28]
 4789 0062 1846     		mov	r0, r3
 4790 0064 2037     		adds	r7, r7, #32
 4791 0066 BD46     		mov	sp, r7
 4792              		@ sp needed
 4793 0068 80BD     		pop	{r7, pc}
 4795              		.section	.text.prvTaskCheckFreeStackSpace,"ax",%progbits
 4796              		.align	1
 4797              		.syntax unified
 4798              		.thumb
 4799              		.thumb_func
 4801              	prvTaskCheckFreeStackSpace:
 4802              		@ args = 0, pretend = 0, frame = 16
 4803              		@ frame_needed = 1, uses_anonymous_args = 0
 4804              		@ link register save eliminated.
 4805 0000 80B4     		push	{r7}
 4806 0002 85B0     		sub	sp, sp, #20
 4807 0004 00AF     		add	r7, sp, #0
 4808 0006 7860     		str	r0, [r7, #4]
 4809 0008 0023     		movs	r3, #0
 4810 000a FB60     		str	r3, [r7, #12]
 4811 000c 05E0     		b	.L398
 4812              	.L399:
 4813 000e 7B68     		ldr	r3, [r7, #4]
 4814 0010 0133     		adds	r3, r3, #1
 4815 0012 7B60     		str	r3, [r7, #4]
 4816 0014 FB68     		ldr	r3, [r7, #12]
 4817 0016 0133     		adds	r3, r3, #1
 4818 0018 FB60     		str	r3, [r7, #12]
 4819              	.L398:
 4820 001a 7B68     		ldr	r3, [r7, #4]
 4821 001c 1B78     		ldrb	r3, [r3]	@ zero_extendqisi2
 4822 001e A52B     		cmp	r3, #165
 4823 0020 F5D0     		beq	.L399
 4824 0022 FB68     		ldr	r3, [r7, #12]
 4825 0024 9B08     		lsrs	r3, r3, #2
 4826 0026 FB60     		str	r3, [r7, #12]
 4827 0028 FB68     		ldr	r3, [r7, #12]
 4828 002a 1846     		mov	r0, r3
 4829 002c 1437     		adds	r7, r7, #20
 4830 002e BD46     		mov	sp, r7
 4831              		@ sp needed
 4832 0030 5DF8047B 		ldr	r7, [sp], #4
 4833 0034 7047     		bx	lr
 4835              		.section	.text.uxTaskGetStackHighWaterMark,"ax",%progbits
 4836              		.align	1
 4837              		.global	uxTaskGetStackHighWaterMark
 4838              		.syntax unified
 4839              		.thumb
 4840              		.thumb_func
 4842              	uxTaskGetStackHighWaterMark:
 4843              		@ args = 0, pretend = 0, frame = 24
 4844              		@ frame_needed = 1, uses_anonymous_args = 0
 4845 0000 80B5     		push	{r7, lr}
ARM GAS  C:\Users\phamt\AppData\Local\Temp\ccgYGYX4.s 			page 84


 4846 0002 86B0     		sub	sp, sp, #24
 4847 0004 00AF     		add	r7, sp, #0
 4848 0006 7860     		str	r0, [r7, #4]
 4849 0008 7B68     		ldr	r3, [r7, #4]
 4850 000a 002B     		cmp	r3, #0
 4851 000c 02D1     		bne	.L402
 4852 000e 084B     		ldr	r3, .L405
 4853 0010 1B68     		ldr	r3, [r3]
 4854 0012 00E0     		b	.L403
 4855              	.L402:
 4856 0014 7B68     		ldr	r3, [r7, #4]
 4857              	.L403:
 4858 0016 7B61     		str	r3, [r7, #20]
 4859 0018 7B69     		ldr	r3, [r7, #20]
 4860 001a 1B6B     		ldr	r3, [r3, #48]
 4861 001c 3B61     		str	r3, [r7, #16]
 4862 001e 3869     		ldr	r0, [r7, #16]
 4863 0020 FFF7FEFF 		bl	prvTaskCheckFreeStackSpace
 4864 0024 F860     		str	r0, [r7, #12]
 4865 0026 FB68     		ldr	r3, [r7, #12]
 4866 0028 1846     		mov	r0, r3
 4867 002a 1837     		adds	r7, r7, #24
 4868 002c BD46     		mov	sp, r7
 4869              		@ sp needed
 4870 002e 80BD     		pop	{r7, pc}
 4871              	.L406:
 4872              		.align	2
 4873              	.L405:
 4874 0030 00000000 		.word	pxCurrentTCB
 4876              		.section	.text.prvDeleteTCB,"ax",%progbits
 4877              		.align	1
 4878              		.syntax unified
 4879              		.thumb
 4880              		.thumb_func
 4882              	prvDeleteTCB:
 4883              		@ args = 0, pretend = 0, frame = 8
 4884              		@ frame_needed = 1, uses_anonymous_args = 0
 4885 0000 80B5     		push	{r7, lr}
 4886 0002 82B0     		sub	sp, sp, #8
 4887 0004 00AF     		add	r7, sp, #0
 4888 0006 7860     		str	r0, [r7, #4]
 4889 0008 7B68     		ldr	r3, [r7, #4]
 4890 000a 1B6B     		ldr	r3, [r3, #48]
 4891 000c 1846     		mov	r0, r3
 4892 000e FFF7FEFF 		bl	vPortFree
 4893 0012 7868     		ldr	r0, [r7, #4]
 4894 0014 FFF7FEFF 		bl	vPortFree
 4895 0018 00BF     		nop
 4896 001a 0837     		adds	r7, r7, #8
 4897 001c BD46     		mov	sp, r7
 4898              		@ sp needed
 4899 001e 80BD     		pop	{r7, pc}
 4901              		.section	.text.prvResetNextTaskUnblockTime,"ax",%progbits
 4902              		.align	1
 4903              		.syntax unified
 4904              		.thumb
 4905              		.thumb_func
ARM GAS  C:\Users\phamt\AppData\Local\Temp\ccgYGYX4.s 			page 85


 4907              	prvResetNextTaskUnblockTime:
 4908              		@ args = 0, pretend = 0, frame = 0
 4909              		@ frame_needed = 1, uses_anonymous_args = 0
 4910              		@ link register save eliminated.
 4911 0000 80B4     		push	{r7}
 4912 0002 00AF     		add	r7, sp, #0
 4913 0004 0A4B     		ldr	r3, .L412
 4914 0006 1B68     		ldr	r3, [r3]
 4915 0008 1B68     		ldr	r3, [r3]
 4916 000a 002B     		cmp	r3, #0
 4917 000c 04D1     		bne	.L409
 4918 000e 094B     		ldr	r3, .L412+4
 4919 0010 4FF0FF32 		mov	r2, #-1
 4920 0014 1A60     		str	r2, [r3]
 4921 0016 05E0     		b	.L411
 4922              	.L409:
 4923 0018 054B     		ldr	r3, .L412
 4924 001a 1B68     		ldr	r3, [r3]
 4925 001c DB68     		ldr	r3, [r3, #12]
 4926 001e 1B68     		ldr	r3, [r3]
 4927 0020 044A     		ldr	r2, .L412+4
 4928 0022 1360     		str	r3, [r2]
 4929              	.L411:
 4930 0024 00BF     		nop
 4931 0026 BD46     		mov	sp, r7
 4932              		@ sp needed
 4933 0028 5DF8047B 		ldr	r7, [sp], #4
 4934 002c 7047     		bx	lr
 4935              	.L413:
 4936 002e 00BF     		.align	2
 4937              	.L412:
 4938 0030 00000000 		.word	pxDelayedTaskList
 4939 0034 00000000 		.word	xNextTaskUnblockTime
 4941              		.section	.text.xTaskGetCurrentTaskHandle,"ax",%progbits
 4942              		.align	1
 4943              		.global	xTaskGetCurrentTaskHandle
 4944              		.syntax unified
 4945              		.thumb
 4946              		.thumb_func
 4948              	xTaskGetCurrentTaskHandle:
 4949              		@ args = 0, pretend = 0, frame = 8
 4950              		@ frame_needed = 1, uses_anonymous_args = 0
 4951              		@ link register save eliminated.
 4952 0000 80B4     		push	{r7}
 4953 0002 83B0     		sub	sp, sp, #12
 4954 0004 00AF     		add	r7, sp, #0
 4955 0006 054B     		ldr	r3, .L416
 4956 0008 1B68     		ldr	r3, [r3]
 4957 000a 7B60     		str	r3, [r7, #4]
 4958 000c 7B68     		ldr	r3, [r7, #4]
 4959 000e 1846     		mov	r0, r3
 4960 0010 0C37     		adds	r7, r7, #12
 4961 0012 BD46     		mov	sp, r7
 4962              		@ sp needed
 4963 0014 5DF8047B 		ldr	r7, [sp], #4
 4964 0018 7047     		bx	lr
 4965              	.L417:
ARM GAS  C:\Users\phamt\AppData\Local\Temp\ccgYGYX4.s 			page 86


 4966 001a 00BF     		.align	2
 4967              	.L416:
 4968 001c 00000000 		.word	pxCurrentTCB
 4970              		.section	.text.xTaskGetCurrentTaskHandleForCore,"ax",%progbits
 4971              		.align	1
 4972              		.global	xTaskGetCurrentTaskHandleForCore
 4973              		.syntax unified
 4974              		.thumb
 4975              		.thumb_func
 4977              	xTaskGetCurrentTaskHandleForCore:
 4978              		@ args = 0, pretend = 0, frame = 16
 4979              		@ frame_needed = 1, uses_anonymous_args = 0
 4980              		@ link register save eliminated.
 4981 0000 80B4     		push	{r7}
 4982 0002 85B0     		sub	sp, sp, #20
 4983 0004 00AF     		add	r7, sp, #0
 4984 0006 7860     		str	r0, [r7, #4]
 4985 0008 0023     		movs	r3, #0
 4986 000a FB60     		str	r3, [r7, #12]
 4987 000c 7B68     		ldr	r3, [r7, #4]
 4988 000e 002B     		cmp	r3, #0
 4989 0010 05DB     		blt	.L419
 4990 0012 7B68     		ldr	r3, [r7, #4]
 4991 0014 002B     		cmp	r3, #0
 4992 0016 02DC     		bgt	.L419
 4993 0018 044B     		ldr	r3, .L421
 4994 001a 1B68     		ldr	r3, [r3]
 4995 001c FB60     		str	r3, [r7, #12]
 4996              	.L419:
 4997 001e FB68     		ldr	r3, [r7, #12]
 4998 0020 1846     		mov	r0, r3
 4999 0022 1437     		adds	r7, r7, #20
 5000 0024 BD46     		mov	sp, r7
 5001              		@ sp needed
 5002 0026 5DF8047B 		ldr	r7, [sp], #4
 5003 002a 7047     		bx	lr
 5004              	.L422:
 5005              		.align	2
 5006              	.L421:
 5007 002c 00000000 		.word	pxCurrentTCB
 5009              		.section	.text.xTaskGetSchedulerState,"ax",%progbits
 5010              		.align	1
 5011              		.global	xTaskGetSchedulerState
 5012              		.syntax unified
 5013              		.thumb
 5014              		.thumb_func
 5016              	xTaskGetSchedulerState:
 5017              		@ args = 0, pretend = 0, frame = 8
 5018              		@ frame_needed = 1, uses_anonymous_args = 0
 5019              		@ link register save eliminated.
 5020 0000 80B4     		push	{r7}
 5021 0002 83B0     		sub	sp, sp, #12
 5022 0004 00AF     		add	r7, sp, #0
 5023 0006 0B4B     		ldr	r3, .L428
 5024 0008 1B68     		ldr	r3, [r3]
 5025 000a 002B     		cmp	r3, #0
 5026 000c 02D1     		bne	.L424
ARM GAS  C:\Users\phamt\AppData\Local\Temp\ccgYGYX4.s 			page 87


 5027 000e 0123     		movs	r3, #1
 5028 0010 7B60     		str	r3, [r7, #4]
 5029 0012 08E0     		b	.L425
 5030              	.L424:
 5031 0014 084B     		ldr	r3, .L428+4
 5032 0016 1B68     		ldr	r3, [r3]
 5033 0018 002B     		cmp	r3, #0
 5034 001a 02D1     		bne	.L426
 5035 001c 0223     		movs	r3, #2
 5036 001e 7B60     		str	r3, [r7, #4]
 5037 0020 01E0     		b	.L425
 5038              	.L426:
 5039 0022 0023     		movs	r3, #0
 5040 0024 7B60     		str	r3, [r7, #4]
 5041              	.L425:
 5042 0026 7B68     		ldr	r3, [r7, #4]
 5043 0028 1846     		mov	r0, r3
 5044 002a 0C37     		adds	r7, r7, #12
 5045 002c BD46     		mov	sp, r7
 5046              		@ sp needed
 5047 002e 5DF8047B 		ldr	r7, [sp], #4
 5048 0032 7047     		bx	lr
 5049              	.L429:
 5050              		.align	2
 5051              	.L428:
 5052 0034 00000000 		.word	xSchedulerRunning
 5053 0038 00000000 		.word	uxSchedulerSuspended
 5055              		.section	.text.xTaskPriorityInherit,"ax",%progbits
 5056              		.align	1
 5057              		.global	xTaskPriorityInherit
 5058              		.syntax unified
 5059              		.thumb
 5060              		.thumb_func
 5062              	xTaskPriorityInherit:
 5063              		@ args = 0, pretend = 0, frame = 24
 5064              		@ frame_needed = 1, uses_anonymous_args = 0
 5065 0000 80B5     		push	{r7, lr}
 5066 0002 86B0     		sub	sp, sp, #24
 5067 0004 00AF     		add	r7, sp, #0
 5068 0006 7860     		str	r0, [r7, #4]
 5069 0008 7B68     		ldr	r3, [r7, #4]
 5070 000a 3B61     		str	r3, [r7, #16]
 5071 000c 0023     		movs	r3, #0
 5072 000e 7B61     		str	r3, [r7, #20]
 5073 0010 7B68     		ldr	r3, [r7, #4]
 5074 0012 002B     		cmp	r3, #0
 5075 0014 7BD0     		beq	.L431
 5076 0016 3B69     		ldr	r3, [r7, #16]
 5077 0018 DA6A     		ldr	r2, [r3, #44]
 5078 001a 3F4B     		ldr	r3, .L438
 5079 001c 1B68     		ldr	r3, [r3]
 5080 001e DB6A     		ldr	r3, [r3, #44]
 5081 0020 9A42     		cmp	r2, r3
 5082 0022 6BD2     		bcs	.L432
 5083 0024 3B69     		ldr	r3, [r7, #16]
 5084 0026 9B69     		ldr	r3, [r3, #24]
 5085 0028 002B     		cmp	r3, #0
ARM GAS  C:\Users\phamt\AppData\Local\Temp\ccgYGYX4.s 			page 88


 5086 002a 06DB     		blt	.L433
 5087 002c 3A4B     		ldr	r3, .L438
 5088 002e 1B68     		ldr	r3, [r3]
 5089 0030 DB6A     		ldr	r3, [r3, #44]
 5090 0032 C3F13802 		rsb	r2, r3, #56
 5091 0036 3B69     		ldr	r3, [r7, #16]
 5092 0038 9A61     		str	r2, [r3, #24]
 5093              	.L433:
 5094 003a 3B69     		ldr	r3, [r7, #16]
 5095 003c 5969     		ldr	r1, [r3, #20]
 5096 003e 3B69     		ldr	r3, [r7, #16]
 5097 0040 DA6A     		ldr	r2, [r3, #44]
 5098 0042 1346     		mov	r3, r2
 5099 0044 9B00     		lsls	r3, r3, #2
 5100 0046 1344     		add	r3, r3, r2
 5101 0048 9B00     		lsls	r3, r3, #2
 5102 004a 344A     		ldr	r2, .L438+4
 5103 004c 1344     		add	r3, r3, r2
 5104 004e 9942     		cmp	r1, r3
 5105 0050 4CD1     		bne	.L434
 5106 0052 3B69     		ldr	r3, [r7, #16]
 5107 0054 0433     		adds	r3, r3, #4
 5108 0056 1846     		mov	r0, r3
 5109 0058 FFF7FEFF 		bl	uxListRemove
 5110 005c 2E4B     		ldr	r3, .L438
 5111 005e 1B68     		ldr	r3, [r3]
 5112 0060 DA6A     		ldr	r2, [r3, #44]
 5113 0062 3B69     		ldr	r3, [r7, #16]
 5114 0064 DA62     		str	r2, [r3, #44]
 5115 0066 3B69     		ldr	r3, [r7, #16]
 5116 0068 DA6A     		ldr	r2, [r3, #44]
 5117 006a 2D4B     		ldr	r3, .L438+8
 5118 006c 1B68     		ldr	r3, [r3]
 5119 006e 9A42     		cmp	r2, r3
 5120 0070 03D9     		bls	.L435
 5121 0072 3B69     		ldr	r3, [r7, #16]
 5122 0074 DB6A     		ldr	r3, [r3, #44]
 5123 0076 2A4A     		ldr	r2, .L438+8
 5124 0078 1360     		str	r3, [r2]
 5125              	.L435:
 5126 007a 3B69     		ldr	r3, [r7, #16]
 5127 007c DA6A     		ldr	r2, [r3, #44]
 5128 007e 2749     		ldr	r1, .L438+4
 5129 0080 1346     		mov	r3, r2
 5130 0082 9B00     		lsls	r3, r3, #2
 5131 0084 1344     		add	r3, r3, r2
 5132 0086 9B00     		lsls	r3, r3, #2
 5133 0088 0B44     		add	r3, r3, r1
 5134 008a 0433     		adds	r3, r3, #4
 5135 008c 1B68     		ldr	r3, [r3]
 5136 008e FB60     		str	r3, [r7, #12]
 5137 0090 3B69     		ldr	r3, [r7, #16]
 5138 0092 FA68     		ldr	r2, [r7, #12]
 5139 0094 9A60     		str	r2, [r3, #8]
 5140 0096 FB68     		ldr	r3, [r7, #12]
 5141 0098 9A68     		ldr	r2, [r3, #8]
 5142 009a 3B69     		ldr	r3, [r7, #16]
ARM GAS  C:\Users\phamt\AppData\Local\Temp\ccgYGYX4.s 			page 89


 5143 009c DA60     		str	r2, [r3, #12]
 5144 009e FB68     		ldr	r3, [r7, #12]
 5145 00a0 9B68     		ldr	r3, [r3, #8]
 5146 00a2 3A69     		ldr	r2, [r7, #16]
 5147 00a4 0432     		adds	r2, r2, #4
 5148 00a6 5A60     		str	r2, [r3, #4]
 5149 00a8 3B69     		ldr	r3, [r7, #16]
 5150 00aa 1A1D     		adds	r2, r3, #4
 5151 00ac FB68     		ldr	r3, [r7, #12]
 5152 00ae 9A60     		str	r2, [r3, #8]
 5153 00b0 3B69     		ldr	r3, [r7, #16]
 5154 00b2 DA6A     		ldr	r2, [r3, #44]
 5155 00b4 1346     		mov	r3, r2
 5156 00b6 9B00     		lsls	r3, r3, #2
 5157 00b8 1344     		add	r3, r3, r2
 5158 00ba 9B00     		lsls	r3, r3, #2
 5159 00bc 174A     		ldr	r2, .L438+4
 5160 00be 1A44     		add	r2, r2, r3
 5161 00c0 3B69     		ldr	r3, [r7, #16]
 5162 00c2 5A61     		str	r2, [r3, #20]
 5163 00c4 3B69     		ldr	r3, [r7, #16]
 5164 00c6 DA6A     		ldr	r2, [r3, #44]
 5165 00c8 1449     		ldr	r1, .L438+4
 5166 00ca 1346     		mov	r3, r2
 5167 00cc 9B00     		lsls	r3, r3, #2
 5168 00ce 1344     		add	r3, r3, r2
 5169 00d0 9B00     		lsls	r3, r3, #2
 5170 00d2 0B44     		add	r3, r3, r1
 5171 00d4 1B68     		ldr	r3, [r3]
 5172 00d6 3A69     		ldr	r2, [r7, #16]
 5173 00d8 D26A     		ldr	r2, [r2, #44]
 5174 00da 591C     		adds	r1, r3, #1
 5175 00dc 0F48     		ldr	r0, .L438+4
 5176 00de 1346     		mov	r3, r2
 5177 00e0 9B00     		lsls	r3, r3, #2
 5178 00e2 1344     		add	r3, r3, r2
 5179 00e4 9B00     		lsls	r3, r3, #2
 5180 00e6 0344     		add	r3, r3, r0
 5181 00e8 1960     		str	r1, [r3]
 5182 00ea 04E0     		b	.L436
 5183              	.L434:
 5184 00ec 0A4B     		ldr	r3, .L438
 5185 00ee 1B68     		ldr	r3, [r3]
 5186 00f0 DA6A     		ldr	r2, [r3, #44]
 5187 00f2 3B69     		ldr	r3, [r7, #16]
 5188 00f4 DA62     		str	r2, [r3, #44]
 5189              	.L436:
 5190 00f6 0123     		movs	r3, #1
 5191 00f8 7B61     		str	r3, [r7, #20]
 5192 00fa 08E0     		b	.L431
 5193              	.L432:
 5194 00fc 3B69     		ldr	r3, [r7, #16]
 5195 00fe DA6C     		ldr	r2, [r3, #76]
 5196 0100 054B     		ldr	r3, .L438
 5197 0102 1B68     		ldr	r3, [r3]
 5198 0104 DB6A     		ldr	r3, [r3, #44]
 5199 0106 9A42     		cmp	r2, r3
ARM GAS  C:\Users\phamt\AppData\Local\Temp\ccgYGYX4.s 			page 90


 5200 0108 01D2     		bcs	.L431
 5201 010a 0123     		movs	r3, #1
 5202 010c 7B61     		str	r3, [r7, #20]
 5203              	.L431:
 5204 010e 7B69     		ldr	r3, [r7, #20]
 5205 0110 1846     		mov	r0, r3
 5206 0112 1837     		adds	r7, r7, #24
 5207 0114 BD46     		mov	sp, r7
 5208              		@ sp needed
 5209 0116 80BD     		pop	{r7, pc}
 5210              	.L439:
 5211              		.align	2
 5212              	.L438:
 5213 0118 00000000 		.word	pxCurrentTCB
 5214 011c 00000000 		.word	pxReadyTasksLists
 5215 0120 00000000 		.word	uxTopReadyPriority
 5217              		.section	.text.xTaskPriorityDisinherit,"ax",%progbits
 5218              		.align	1
 5219              		.global	xTaskPriorityDisinherit
 5220              		.syntax unified
 5221              		.thumb
 5222              		.thumb_func
 5224              	xTaskPriorityDisinherit:
 5225              		@ args = 0, pretend = 0, frame = 32
 5226              		@ frame_needed = 1, uses_anonymous_args = 0
 5227 0000 80B5     		push	{r7, lr}
 5228 0002 88B0     		sub	sp, sp, #32
 5229 0004 00AF     		add	r7, sp, #0
 5230 0006 7860     		str	r0, [r7, #4]
 5231 0008 7B68     		ldr	r3, [r7, #4]
 5232 000a BB61     		str	r3, [r7, #24]
 5233 000c 0023     		movs	r3, #0
 5234 000e FB61     		str	r3, [r7, #28]
 5235 0010 7B68     		ldr	r3, [r7, #4]
 5236 0012 002B     		cmp	r3, #0
 5237 0014 00F08180 		beq	.L441
 5238 0018 424B     		ldr	r3, .L448
 5239 001a 1B68     		ldr	r3, [r3]
 5240 001c BA69     		ldr	r2, [r7, #24]
 5241 001e 9A42     		cmp	r2, r3
 5242 0020 0AD0     		beq	.L442
 5243              		.syntax unified
 5244              	@ 217 "FreeRTOS/portable/GCC/ARM_CM4F/portmacro.h" 1
 5245 0022 4FF05003 		   mov r3, #80                                              
 5246 0026 83F31188 	   msr basepri, r3                                         
 5247 002a BFF36F8F 	   isb                                                     
 5248 002e BFF34F8F 	   dsb                                                     
 5249              	
 5250              	@ 0 "" 2
 5251              		.thumb
 5252              		.syntax unified
 5253 0032 3B61     		str	r3, [r7, #16]
 5254 0034 00BF     		nop
 5255              	.L443:
 5256 0036 FEE7     		b	.L443
 5257              	.L442:
 5258 0038 BB69     		ldr	r3, [r7, #24]
ARM GAS  C:\Users\phamt\AppData\Local\Temp\ccgYGYX4.s 			page 91


 5259 003a 1B6D     		ldr	r3, [r3, #80]
 5260 003c 002B     		cmp	r3, #0
 5261 003e 0AD1     		bne	.L444
 5262              		.syntax unified
 5263              	@ 217 "FreeRTOS/portable/GCC/ARM_CM4F/portmacro.h" 1
 5264 0040 4FF05003 		   mov r3, #80                                              
 5265 0044 83F31188 	   msr basepri, r3                                         
 5266 0048 BFF36F8F 	   isb                                                     
 5267 004c BFF34F8F 	   dsb                                                     
 5268              	
 5269              	@ 0 "" 2
 5270              		.thumb
 5271              		.syntax unified
 5272 0050 FB60     		str	r3, [r7, #12]
 5273 0052 00BF     		nop
 5274              	.L445:
 5275 0054 FEE7     		b	.L445
 5276              	.L444:
 5277 0056 BB69     		ldr	r3, [r7, #24]
 5278 0058 1B6D     		ldr	r3, [r3, #80]
 5279 005a 5A1E     		subs	r2, r3, #1
 5280 005c BB69     		ldr	r3, [r7, #24]
 5281 005e 1A65     		str	r2, [r3, #80]
 5282 0060 BB69     		ldr	r3, [r7, #24]
 5283 0062 DA6A     		ldr	r2, [r3, #44]
 5284 0064 BB69     		ldr	r3, [r7, #24]
 5285 0066 DB6C     		ldr	r3, [r3, #76]
 5286 0068 9A42     		cmp	r2, r3
 5287 006a 56D0     		beq	.L441
 5288 006c BB69     		ldr	r3, [r7, #24]
 5289 006e 1B6D     		ldr	r3, [r3, #80]
 5290 0070 002B     		cmp	r3, #0
 5291 0072 52D1     		bne	.L441
 5292 0074 BB69     		ldr	r3, [r7, #24]
 5293 0076 0433     		adds	r3, r3, #4
 5294 0078 1846     		mov	r0, r3
 5295 007a FFF7FEFF 		bl	uxListRemove
 5296 007e BB69     		ldr	r3, [r7, #24]
 5297 0080 DA6C     		ldr	r2, [r3, #76]
 5298 0082 BB69     		ldr	r3, [r7, #24]
 5299 0084 DA62     		str	r2, [r3, #44]
 5300 0086 BB69     		ldr	r3, [r7, #24]
 5301 0088 DB6A     		ldr	r3, [r3, #44]
 5302 008a C3F13802 		rsb	r2, r3, #56
 5303 008e BB69     		ldr	r3, [r7, #24]
 5304 0090 9A61     		str	r2, [r3, #24]
 5305 0092 BB69     		ldr	r3, [r7, #24]
 5306 0094 DA6A     		ldr	r2, [r3, #44]
 5307 0096 244B     		ldr	r3, .L448+4
 5308 0098 1B68     		ldr	r3, [r3]
 5309 009a 9A42     		cmp	r2, r3
 5310 009c 03D9     		bls	.L446
 5311 009e BB69     		ldr	r3, [r7, #24]
 5312 00a0 DB6A     		ldr	r3, [r3, #44]
 5313 00a2 214A     		ldr	r2, .L448+4
 5314 00a4 1360     		str	r3, [r2]
 5315              	.L446:
ARM GAS  C:\Users\phamt\AppData\Local\Temp\ccgYGYX4.s 			page 92


 5316 00a6 BB69     		ldr	r3, [r7, #24]
 5317 00a8 DA6A     		ldr	r2, [r3, #44]
 5318 00aa 2049     		ldr	r1, .L448+8
 5319 00ac 1346     		mov	r3, r2
 5320 00ae 9B00     		lsls	r3, r3, #2
 5321 00b0 1344     		add	r3, r3, r2
 5322 00b2 9B00     		lsls	r3, r3, #2
 5323 00b4 0B44     		add	r3, r3, r1
 5324 00b6 0433     		adds	r3, r3, #4
 5325 00b8 1B68     		ldr	r3, [r3]
 5326 00ba 7B61     		str	r3, [r7, #20]
 5327 00bc BB69     		ldr	r3, [r7, #24]
 5328 00be 7A69     		ldr	r2, [r7, #20]
 5329 00c0 9A60     		str	r2, [r3, #8]
 5330 00c2 7B69     		ldr	r3, [r7, #20]
 5331 00c4 9A68     		ldr	r2, [r3, #8]
 5332 00c6 BB69     		ldr	r3, [r7, #24]
 5333 00c8 DA60     		str	r2, [r3, #12]
 5334 00ca 7B69     		ldr	r3, [r7, #20]
 5335 00cc 9B68     		ldr	r3, [r3, #8]
 5336 00ce BA69     		ldr	r2, [r7, #24]
 5337 00d0 0432     		adds	r2, r2, #4
 5338 00d2 5A60     		str	r2, [r3, #4]
 5339 00d4 BB69     		ldr	r3, [r7, #24]
 5340 00d6 1A1D     		adds	r2, r3, #4
 5341 00d8 7B69     		ldr	r3, [r7, #20]
 5342 00da 9A60     		str	r2, [r3, #8]
 5343 00dc BB69     		ldr	r3, [r7, #24]
 5344 00de DA6A     		ldr	r2, [r3, #44]
 5345 00e0 1346     		mov	r3, r2
 5346 00e2 9B00     		lsls	r3, r3, #2
 5347 00e4 1344     		add	r3, r3, r2
 5348 00e6 9B00     		lsls	r3, r3, #2
 5349 00e8 104A     		ldr	r2, .L448+8
 5350 00ea 1A44     		add	r2, r2, r3
 5351 00ec BB69     		ldr	r3, [r7, #24]
 5352 00ee 5A61     		str	r2, [r3, #20]
 5353 00f0 BB69     		ldr	r3, [r7, #24]
 5354 00f2 DA6A     		ldr	r2, [r3, #44]
 5355 00f4 0D49     		ldr	r1, .L448+8
 5356 00f6 1346     		mov	r3, r2
 5357 00f8 9B00     		lsls	r3, r3, #2
 5358 00fa 1344     		add	r3, r3, r2
 5359 00fc 9B00     		lsls	r3, r3, #2
 5360 00fe 0B44     		add	r3, r3, r1
 5361 0100 1B68     		ldr	r3, [r3]
 5362 0102 BA69     		ldr	r2, [r7, #24]
 5363 0104 D26A     		ldr	r2, [r2, #44]
 5364 0106 591C     		adds	r1, r3, #1
 5365 0108 0848     		ldr	r0, .L448+8
 5366 010a 1346     		mov	r3, r2
 5367 010c 9B00     		lsls	r3, r3, #2
 5368 010e 1344     		add	r3, r3, r2
 5369 0110 9B00     		lsls	r3, r3, #2
 5370 0112 0344     		add	r3, r3, r0
 5371 0114 1960     		str	r1, [r3]
 5372 0116 0123     		movs	r3, #1
ARM GAS  C:\Users\phamt\AppData\Local\Temp\ccgYGYX4.s 			page 93


 5373 0118 FB61     		str	r3, [r7, #28]
 5374              	.L441:
 5375 011a FB69     		ldr	r3, [r7, #28]
 5376 011c 1846     		mov	r0, r3
 5377 011e 2037     		adds	r7, r7, #32
 5378 0120 BD46     		mov	sp, r7
 5379              		@ sp needed
 5380 0122 80BD     		pop	{r7, pc}
 5381              	.L449:
 5382              		.align	2
 5383              	.L448:
 5384 0124 00000000 		.word	pxCurrentTCB
 5385 0128 00000000 		.word	uxTopReadyPriority
 5386 012c 00000000 		.word	pxReadyTasksLists
 5388              		.section	.text.vTaskPriorityDisinheritAfterTimeout,"ax",%progbits
 5389              		.align	1
 5390              		.global	vTaskPriorityDisinheritAfterTimeout
 5391              		.syntax unified
 5392              		.thumb
 5393              		.thumb_func
 5395              	vTaskPriorityDisinheritAfterTimeout:
 5396              		@ args = 0, pretend = 0, frame = 40
 5397              		@ frame_needed = 1, uses_anonymous_args = 0
 5398 0000 80B5     		push	{r7, lr}
 5399 0002 8AB0     		sub	sp, sp, #40
 5400 0004 00AF     		add	r7, sp, #0
 5401 0006 7860     		str	r0, [r7, #4]
 5402 0008 3960     		str	r1, [r7]
 5403 000a 7B68     		ldr	r3, [r7, #4]
 5404 000c 3B62     		str	r3, [r7, #32]
 5405 000e 0123     		movs	r3, #1
 5406 0010 FB61     		str	r3, [r7, #28]
 5407 0012 7B68     		ldr	r3, [r7, #4]
 5408 0014 002B     		cmp	r3, #0
 5409 0016 00F09580 		beq	.L460
 5410 001a 3B6A     		ldr	r3, [r7, #32]
 5411 001c 1B6D     		ldr	r3, [r3, #80]
 5412 001e 002B     		cmp	r3, #0
 5413 0020 0AD1     		bne	.L452
 5414              		.syntax unified
 5415              	@ 217 "FreeRTOS/portable/GCC/ARM_CM4F/portmacro.h" 1
 5416 0022 4FF05003 		   mov r3, #80                                              
 5417 0026 83F31188 	   msr basepri, r3                                         
 5418 002a BFF36F8F 	   isb                                                     
 5419 002e BFF34F8F 	   dsb                                                     
 5420              	
 5421              	@ 0 "" 2
 5422              		.thumb
 5423              		.syntax unified
 5424 0032 3B61     		str	r3, [r7, #16]
 5425 0034 00BF     		nop
 5426              	.L453:
 5427 0036 FEE7     		b	.L453
 5428              	.L452:
 5429 0038 3B6A     		ldr	r3, [r7, #32]
 5430 003a DB6C     		ldr	r3, [r3, #76]
 5431 003c 3A68     		ldr	r2, [r7]
ARM GAS  C:\Users\phamt\AppData\Local\Temp\ccgYGYX4.s 			page 94


 5432 003e 9A42     		cmp	r2, r3
 5433 0040 02D9     		bls	.L454
 5434 0042 3B68     		ldr	r3, [r7]
 5435 0044 7B62     		str	r3, [r7, #36]
 5436 0046 02E0     		b	.L455
 5437              	.L454:
 5438 0048 3B6A     		ldr	r3, [r7, #32]
 5439 004a DB6C     		ldr	r3, [r3, #76]
 5440 004c 7B62     		str	r3, [r7, #36]
 5441              	.L455:
 5442 004e 3B6A     		ldr	r3, [r7, #32]
 5443 0050 DB6A     		ldr	r3, [r3, #44]
 5444 0052 7A6A     		ldr	r2, [r7, #36]
 5445 0054 9A42     		cmp	r2, r3
 5446 0056 75D0     		beq	.L460
 5447 0058 3B6A     		ldr	r3, [r7, #32]
 5448 005a 1B6D     		ldr	r3, [r3, #80]
 5449 005c FA69     		ldr	r2, [r7, #28]
 5450 005e 9A42     		cmp	r2, r3
 5451 0060 70D1     		bne	.L460
 5452 0062 3A4B     		ldr	r3, .L461
 5453 0064 1B68     		ldr	r3, [r3]
 5454 0066 3A6A     		ldr	r2, [r7, #32]
 5455 0068 9A42     		cmp	r2, r3
 5456 006a 0AD1     		bne	.L456
 5457              		.syntax unified
 5458              	@ 217 "FreeRTOS/portable/GCC/ARM_CM4F/portmacro.h" 1
 5459 006c 4FF05003 		   mov r3, #80                                              
 5460 0070 83F31188 	   msr basepri, r3                                         
 5461 0074 BFF36F8F 	   isb                                                     
 5462 0078 BFF34F8F 	   dsb                                                     
 5463              	
 5464              	@ 0 "" 2
 5465              		.thumb
 5466              		.syntax unified
 5467 007c FB60     		str	r3, [r7, #12]
 5468 007e 00BF     		nop
 5469              	.L457:
 5470 0080 FEE7     		b	.L457
 5471              	.L456:
 5472 0082 3B6A     		ldr	r3, [r7, #32]
 5473 0084 DB6A     		ldr	r3, [r3, #44]
 5474 0086 BB61     		str	r3, [r7, #24]
 5475 0088 3B6A     		ldr	r3, [r7, #32]
 5476 008a 7A6A     		ldr	r2, [r7, #36]
 5477 008c DA62     		str	r2, [r3, #44]
 5478 008e 3B6A     		ldr	r3, [r7, #32]
 5479 0090 9B69     		ldr	r3, [r3, #24]
 5480 0092 002B     		cmp	r3, #0
 5481 0094 04DB     		blt	.L458
 5482 0096 7B6A     		ldr	r3, [r7, #36]
 5483 0098 C3F13802 		rsb	r2, r3, #56
 5484 009c 3B6A     		ldr	r3, [r7, #32]
 5485 009e 9A61     		str	r2, [r3, #24]
 5486              	.L458:
 5487 00a0 3B6A     		ldr	r3, [r7, #32]
 5488 00a2 5969     		ldr	r1, [r3, #20]
ARM GAS  C:\Users\phamt\AppData\Local\Temp\ccgYGYX4.s 			page 95


 5489 00a4 BA69     		ldr	r2, [r7, #24]
 5490 00a6 1346     		mov	r3, r2
 5491 00a8 9B00     		lsls	r3, r3, #2
 5492 00aa 1344     		add	r3, r3, r2
 5493 00ac 9B00     		lsls	r3, r3, #2
 5494 00ae 284A     		ldr	r2, .L461+4
 5495 00b0 1344     		add	r3, r3, r2
 5496 00b2 9942     		cmp	r1, r3
 5497 00b4 46D1     		bne	.L460
 5498 00b6 3B6A     		ldr	r3, [r7, #32]
 5499 00b8 0433     		adds	r3, r3, #4
 5500 00ba 1846     		mov	r0, r3
 5501 00bc FFF7FEFF 		bl	uxListRemove
 5502 00c0 3B6A     		ldr	r3, [r7, #32]
 5503 00c2 DA6A     		ldr	r2, [r3, #44]
 5504 00c4 234B     		ldr	r3, .L461+8
 5505 00c6 1B68     		ldr	r3, [r3]
 5506 00c8 9A42     		cmp	r2, r3
 5507 00ca 03D9     		bls	.L459
 5508 00cc 3B6A     		ldr	r3, [r7, #32]
 5509 00ce DB6A     		ldr	r3, [r3, #44]
 5510 00d0 204A     		ldr	r2, .L461+8
 5511 00d2 1360     		str	r3, [r2]
 5512              	.L459:
 5513 00d4 3B6A     		ldr	r3, [r7, #32]
 5514 00d6 DA6A     		ldr	r2, [r3, #44]
 5515 00d8 1D49     		ldr	r1, .L461+4
 5516 00da 1346     		mov	r3, r2
 5517 00dc 9B00     		lsls	r3, r3, #2
 5518 00de 1344     		add	r3, r3, r2
 5519 00e0 9B00     		lsls	r3, r3, #2
 5520 00e2 0B44     		add	r3, r3, r1
 5521 00e4 0433     		adds	r3, r3, #4
 5522 00e6 1B68     		ldr	r3, [r3]
 5523 00e8 7B61     		str	r3, [r7, #20]
 5524 00ea 3B6A     		ldr	r3, [r7, #32]
 5525 00ec 7A69     		ldr	r2, [r7, #20]
 5526 00ee 9A60     		str	r2, [r3, #8]
 5527 00f0 7B69     		ldr	r3, [r7, #20]
 5528 00f2 9A68     		ldr	r2, [r3, #8]
 5529 00f4 3B6A     		ldr	r3, [r7, #32]
 5530 00f6 DA60     		str	r2, [r3, #12]
 5531 00f8 7B69     		ldr	r3, [r7, #20]
 5532 00fa 9B68     		ldr	r3, [r3, #8]
 5533 00fc 3A6A     		ldr	r2, [r7, #32]
 5534 00fe 0432     		adds	r2, r2, #4
 5535 0100 5A60     		str	r2, [r3, #4]
 5536 0102 3B6A     		ldr	r3, [r7, #32]
 5537 0104 1A1D     		adds	r2, r3, #4
 5538 0106 7B69     		ldr	r3, [r7, #20]
 5539 0108 9A60     		str	r2, [r3, #8]
 5540 010a 3B6A     		ldr	r3, [r7, #32]
 5541 010c DA6A     		ldr	r2, [r3, #44]
 5542 010e 1346     		mov	r3, r2
 5543 0110 9B00     		lsls	r3, r3, #2
 5544 0112 1344     		add	r3, r3, r2
 5545 0114 9B00     		lsls	r3, r3, #2
ARM GAS  C:\Users\phamt\AppData\Local\Temp\ccgYGYX4.s 			page 96


 5546 0116 0E4A     		ldr	r2, .L461+4
 5547 0118 1A44     		add	r2, r2, r3
 5548 011a 3B6A     		ldr	r3, [r7, #32]
 5549 011c 5A61     		str	r2, [r3, #20]
 5550 011e 3B6A     		ldr	r3, [r7, #32]
 5551 0120 DA6A     		ldr	r2, [r3, #44]
 5552 0122 0B49     		ldr	r1, .L461+4
 5553 0124 1346     		mov	r3, r2
 5554 0126 9B00     		lsls	r3, r3, #2
 5555 0128 1344     		add	r3, r3, r2
 5556 012a 9B00     		lsls	r3, r3, #2
 5557 012c 0B44     		add	r3, r3, r1
 5558 012e 1B68     		ldr	r3, [r3]
 5559 0130 3A6A     		ldr	r2, [r7, #32]
 5560 0132 D26A     		ldr	r2, [r2, #44]
 5561 0134 591C     		adds	r1, r3, #1
 5562 0136 0648     		ldr	r0, .L461+4
 5563 0138 1346     		mov	r3, r2
 5564 013a 9B00     		lsls	r3, r3, #2
 5565 013c 1344     		add	r3, r3, r2
 5566 013e 9B00     		lsls	r3, r3, #2
 5567 0140 0344     		add	r3, r3, r0
 5568 0142 1960     		str	r1, [r3]
 5569              	.L460:
 5570 0144 00BF     		nop
 5571 0146 2837     		adds	r7, r7, #40
 5572 0148 BD46     		mov	sp, r7
 5573              		@ sp needed
 5574 014a 80BD     		pop	{r7, pc}
 5575              	.L462:
 5576              		.align	2
 5577              	.L461:
 5578 014c 00000000 		.word	pxCurrentTCB
 5579 0150 00000000 		.word	pxReadyTasksLists
 5580 0154 00000000 		.word	uxTopReadyPriority
 5582              		.section	.text.uxTaskResetEventItemValue,"ax",%progbits
 5583              		.align	1
 5584              		.global	uxTaskResetEventItemValue
 5585              		.syntax unified
 5586              		.thumb
 5587              		.thumb_func
 5589              	uxTaskResetEventItemValue:
 5590              		@ args = 0, pretend = 0, frame = 8
 5591              		@ frame_needed = 1, uses_anonymous_args = 0
 5592              		@ link register save eliminated.
 5593 0000 80B4     		push	{r7}
 5594 0002 83B0     		sub	sp, sp, #12
 5595 0004 00AF     		add	r7, sp, #0
 5596 0006 094B     		ldr	r3, .L465
 5597 0008 1B68     		ldr	r3, [r3]
 5598 000a 9B69     		ldr	r3, [r3, #24]
 5599 000c 7B60     		str	r3, [r7, #4]
 5600 000e 074B     		ldr	r3, .L465
 5601 0010 1B68     		ldr	r3, [r3]
 5602 0012 DA6A     		ldr	r2, [r3, #44]
 5603 0014 054B     		ldr	r3, .L465
 5604 0016 1B68     		ldr	r3, [r3]
ARM GAS  C:\Users\phamt\AppData\Local\Temp\ccgYGYX4.s 			page 97


 5605 0018 C2F13802 		rsb	r2, r2, #56
 5606 001c 9A61     		str	r2, [r3, #24]
 5607 001e 7B68     		ldr	r3, [r7, #4]
 5608 0020 1846     		mov	r0, r3
 5609 0022 0C37     		adds	r7, r7, #12
 5610 0024 BD46     		mov	sp, r7
 5611              		@ sp needed
 5612 0026 5DF8047B 		ldr	r7, [sp], #4
 5613 002a 7047     		bx	lr
 5614              	.L466:
 5615              		.align	2
 5616              	.L465:
 5617 002c 00000000 		.word	pxCurrentTCB
 5619              		.section	.text.pvTaskIncrementMutexHeldCount,"ax",%progbits
 5620              		.align	1
 5621              		.global	pvTaskIncrementMutexHeldCount
 5622              		.syntax unified
 5623              		.thumb
 5624              		.thumb_func
 5626              	pvTaskIncrementMutexHeldCount:
 5627              		@ args = 0, pretend = 0, frame = 8
 5628              		@ frame_needed = 1, uses_anonymous_args = 0
 5629              		@ link register save eliminated.
 5630 0000 80B4     		push	{r7}
 5631 0002 83B0     		sub	sp, sp, #12
 5632 0004 00AF     		add	r7, sp, #0
 5633 0006 094B     		ldr	r3, .L470
 5634 0008 1B68     		ldr	r3, [r3]
 5635 000a 7B60     		str	r3, [r7, #4]
 5636 000c 7B68     		ldr	r3, [r7, #4]
 5637 000e 002B     		cmp	r3, #0
 5638 0010 04D0     		beq	.L468
 5639 0012 7B68     		ldr	r3, [r7, #4]
 5640 0014 1B6D     		ldr	r3, [r3, #80]
 5641 0016 5A1C     		adds	r2, r3, #1
 5642 0018 7B68     		ldr	r3, [r7, #4]
 5643 001a 1A65     		str	r2, [r3, #80]
 5644              	.L468:
 5645 001c 7B68     		ldr	r3, [r7, #4]
 5646 001e 1846     		mov	r0, r3
 5647 0020 0C37     		adds	r7, r7, #12
 5648 0022 BD46     		mov	sp, r7
 5649              		@ sp needed
 5650 0024 5DF8047B 		ldr	r7, [sp], #4
 5651 0028 7047     		bx	lr
 5652              	.L471:
 5653 002a 00BF     		.align	2
 5654              	.L470:
 5655 002c 00000000 		.word	pxCurrentTCB
 5657              		.section	.text.ulTaskGenericNotifyTake,"ax",%progbits
 5658              		.align	1
 5659              		.global	ulTaskGenericNotifyTake
 5660              		.syntax unified
 5661              		.thumb
 5662              		.thumb_func
 5664              	ulTaskGenericNotifyTake:
 5665              		@ args = 0, pretend = 0, frame = 32
ARM GAS  C:\Users\phamt\AppData\Local\Temp\ccgYGYX4.s 			page 98


 5666              		@ frame_needed = 1, uses_anonymous_args = 0
 5667 0000 80B5     		push	{r7, lr}
 5668 0002 88B0     		sub	sp, sp, #32
 5669 0004 00AF     		add	r7, sp, #0
 5670 0006 F860     		str	r0, [r7, #12]
 5671 0008 B960     		str	r1, [r7, #8]
 5672 000a 7A60     		str	r2, [r7, #4]
 5673 000c 0023     		movs	r3, #0
 5674 000e FB61     		str	r3, [r7, #28]
 5675 0010 FB68     		ldr	r3, [r7, #12]
 5676 0012 002B     		cmp	r3, #0
 5677 0014 0AD0     		beq	.L473
 5678              		.syntax unified
 5679              	@ 217 "FreeRTOS/portable/GCC/ARM_CM4F/portmacro.h" 1
 5680 0016 4FF05003 		   mov r3, #80                                              
 5681 001a 83F31188 	   msr basepri, r3                                         
 5682 001e BFF36F8F 	   isb                                                     
 5683 0022 BFF34F8F 	   dsb                                                     
 5684              	
 5685              	@ 0 "" 2
 5686              		.thumb
 5687              		.syntax unified
 5688 0026 3B61     		str	r3, [r7, #16]
 5689 0028 00BF     		nop
 5690              	.L474:
 5691 002a FEE7     		b	.L474
 5692              	.L473:
 5693 002c FFF7FEFF 		bl	vTaskSuspendAll
 5694 0030 FFF7FEFF 		bl	vPortEnterCritical
 5695 0034 2F4B     		ldr	r3, .L481
 5696 0036 1A68     		ldr	r2, [r3]
 5697 0038 FB68     		ldr	r3, [r7, #12]
 5698 003a 1433     		adds	r3, r3, #20
 5699 003c 9B00     		lsls	r3, r3, #2
 5700 003e 1344     		add	r3, r3, r2
 5701 0040 5B68     		ldr	r3, [r3, #4]
 5702 0042 002B     		cmp	r3, #0
 5703 0044 0BD1     		bne	.L475
 5704 0046 2B4B     		ldr	r3, .L481
 5705 0048 1A68     		ldr	r2, [r3]
 5706 004a FB68     		ldr	r3, [r7, #12]
 5707 004c 1344     		add	r3, r3, r2
 5708 004e 5833     		adds	r3, r3, #88
 5709 0050 0122     		movs	r2, #1
 5710 0052 1A70     		strb	r2, [r3]
 5711 0054 7B68     		ldr	r3, [r7, #4]
 5712 0056 002B     		cmp	r3, #0
 5713 0058 01D0     		beq	.L475
 5714 005a 0123     		movs	r3, #1
 5715 005c FB61     		str	r3, [r7, #28]
 5716              	.L475:
 5717 005e FFF7FEFF 		bl	vPortExitCritical
 5718 0062 FB69     		ldr	r3, [r7, #28]
 5719 0064 012B     		cmp	r3, #1
 5720 0066 03D1     		bne	.L476
 5721 0068 0121     		movs	r1, #1
 5722 006a 7868     		ldr	r0, [r7, #4]
ARM GAS  C:\Users\phamt\AppData\Local\Temp\ccgYGYX4.s 			page 99


 5723 006c FFF7FEFF 		bl	prvAddCurrentTaskToDelayedList
 5724              	.L476:
 5725 0070 FFF7FEFF 		bl	xTaskResumeAll
 5726 0074 B861     		str	r0, [r7, #24]
 5727 0076 FB69     		ldr	r3, [r7, #28]
 5728 0078 012B     		cmp	r3, #1
 5729 007a 0AD1     		bne	.L477
 5730 007c BB69     		ldr	r3, [r7, #24]
 5731 007e 002B     		cmp	r3, #0
 5732 0080 07D1     		bne	.L477
 5733 0082 1D4B     		ldr	r3, .L481+4
 5734 0084 4FF08052 		mov	r2, #268435456
 5735 0088 1A60     		str	r2, [r3]
 5736              		.syntax unified
 5737              	@ 7687 "FreeRTOS/tasks.c" 1
 5738 008a BFF34F8F 		dsb
 5739              	@ 0 "" 2
 5740              	@ 7687 "FreeRTOS/tasks.c" 1
 5741 008e BFF36F8F 		isb
 5742              	@ 0 "" 2
 5743              		.thumb
 5744              		.syntax unified
 5745              	.L477:
 5746 0092 FFF7FEFF 		bl	vPortEnterCritical
 5747 0096 174B     		ldr	r3, .L481
 5748 0098 1A68     		ldr	r2, [r3]
 5749 009a FB68     		ldr	r3, [r7, #12]
 5750 009c 1433     		adds	r3, r3, #20
 5751 009e 9B00     		lsls	r3, r3, #2
 5752 00a0 1344     		add	r3, r3, r2
 5753 00a2 5B68     		ldr	r3, [r3, #4]
 5754 00a4 7B61     		str	r3, [r7, #20]
 5755 00a6 7B69     		ldr	r3, [r7, #20]
 5756 00a8 002B     		cmp	r3, #0
 5757 00aa 14D0     		beq	.L478
 5758 00ac BB68     		ldr	r3, [r7, #8]
 5759 00ae 002B     		cmp	r3, #0
 5760 00b0 08D0     		beq	.L479
 5761 00b2 104B     		ldr	r3, .L481
 5762 00b4 1A68     		ldr	r2, [r3]
 5763 00b6 FB68     		ldr	r3, [r7, #12]
 5764 00b8 1433     		adds	r3, r3, #20
 5765 00ba 9B00     		lsls	r3, r3, #2
 5766 00bc 1344     		add	r3, r3, r2
 5767 00be 0022     		movs	r2, #0
 5768 00c0 5A60     		str	r2, [r3, #4]
 5769 00c2 08E0     		b	.L478
 5770              	.L479:
 5771 00c4 0B4B     		ldr	r3, .L481
 5772 00c6 1968     		ldr	r1, [r3]
 5773 00c8 7B69     		ldr	r3, [r7, #20]
 5774 00ca 5A1E     		subs	r2, r3, #1
 5775 00cc FB68     		ldr	r3, [r7, #12]
 5776 00ce 1433     		adds	r3, r3, #20
 5777 00d0 9B00     		lsls	r3, r3, #2
 5778 00d2 0B44     		add	r3, r3, r1
 5779 00d4 5A60     		str	r2, [r3, #4]
ARM GAS  C:\Users\phamt\AppData\Local\Temp\ccgYGYX4.s 			page 100


 5780              	.L478:
 5781 00d6 074B     		ldr	r3, .L481
 5782 00d8 1A68     		ldr	r2, [r3]
 5783 00da FB68     		ldr	r3, [r7, #12]
 5784 00dc 1344     		add	r3, r3, r2
 5785 00de 5833     		adds	r3, r3, #88
 5786 00e0 0022     		movs	r2, #0
 5787 00e2 1A70     		strb	r2, [r3]
 5788 00e4 FFF7FEFF 		bl	vPortExitCritical
 5789 00e8 7B69     		ldr	r3, [r7, #20]
 5790 00ea 1846     		mov	r0, r3
 5791 00ec 2037     		adds	r7, r7, #32
 5792 00ee BD46     		mov	sp, r7
 5793              		@ sp needed
 5794 00f0 80BD     		pop	{r7, pc}
 5795              	.L482:
 5796 00f2 00BF     		.align	2
 5797              	.L481:
 5798 00f4 00000000 		.word	pxCurrentTCB
 5799 00f8 04ED00E0 		.word	-536810236
 5801              		.section	.text.xTaskGenericNotifyWait,"ax",%progbits
 5802              		.align	1
 5803              		.global	xTaskGenericNotifyWait
 5804              		.syntax unified
 5805              		.thumb
 5806              		.thumb_func
 5808              	xTaskGenericNotifyWait:
 5809              		@ args = 4, pretend = 0, frame = 32
 5810              		@ frame_needed = 1, uses_anonymous_args = 0
 5811 0000 80B5     		push	{r7, lr}
 5812 0002 88B0     		sub	sp, sp, #32
 5813 0004 00AF     		add	r7, sp, #0
 5814 0006 F860     		str	r0, [r7, #12]
 5815 0008 B960     		str	r1, [r7, #8]
 5816 000a 7A60     		str	r2, [r7, #4]
 5817 000c 3B60     		str	r3, [r7]
 5818 000e 0023     		movs	r3, #0
 5819 0010 BB61     		str	r3, [r7, #24]
 5820 0012 FB68     		ldr	r3, [r7, #12]
 5821 0014 002B     		cmp	r3, #0
 5822 0016 0AD0     		beq	.L484
 5823              		.syntax unified
 5824              	@ 217 "FreeRTOS/portable/GCC/ARM_CM4F/portmacro.h" 1
 5825 0018 4FF05003 		   mov r3, #80                                              
 5826 001c 83F31188 	   msr basepri, r3                                         
 5827 0020 BFF36F8F 	   isb                                                     
 5828 0024 BFF34F8F 	   dsb                                                     
 5829              	
 5830              	@ 0 "" 2
 5831              		.thumb
 5832              		.syntax unified
 5833 0028 3B61     		str	r3, [r7, #16]
 5834 002a 00BF     		nop
 5835              	.L485:
 5836 002c FEE7     		b	.L485
 5837              	.L484:
 5838 002e FFF7FEFF 		bl	vTaskSuspendAll
ARM GAS  C:\Users\phamt\AppData\Local\Temp\ccgYGYX4.s 			page 101


 5839 0032 FFF7FEFF 		bl	vPortEnterCritical
 5840 0036 3B4B     		ldr	r3, .L493
 5841 0038 1A68     		ldr	r2, [r3]
 5842 003a FB68     		ldr	r3, [r7, #12]
 5843 003c 1344     		add	r3, r3, r2
 5844 003e 5833     		adds	r3, r3, #88
 5845 0040 1B78     		ldrb	r3, [r3]
 5846 0042 DBB2     		uxtb	r3, r3
 5847 0044 022B     		cmp	r3, #2
 5848 0046 1AD0     		beq	.L486
 5849 0048 364B     		ldr	r3, .L493
 5850 004a 1A68     		ldr	r2, [r3]
 5851 004c FB68     		ldr	r3, [r7, #12]
 5852 004e 1433     		adds	r3, r3, #20
 5853 0050 9B00     		lsls	r3, r3, #2
 5854 0052 1344     		add	r3, r3, r2
 5855 0054 5968     		ldr	r1, [r3, #4]
 5856 0056 BB68     		ldr	r3, [r7, #8]
 5857 0058 DB43     		mvns	r3, r3
 5858 005a 1940     		ands	r1, r1, r3
 5859 005c FB68     		ldr	r3, [r7, #12]
 5860 005e 1433     		adds	r3, r3, #20
 5861 0060 9B00     		lsls	r3, r3, #2
 5862 0062 1344     		add	r3, r3, r2
 5863 0064 5960     		str	r1, [r3, #4]
 5864 0066 2F4B     		ldr	r3, .L493
 5865 0068 1A68     		ldr	r2, [r3]
 5866 006a FB68     		ldr	r3, [r7, #12]
 5867 006c 1344     		add	r3, r3, r2
 5868 006e 5833     		adds	r3, r3, #88
 5869 0070 0122     		movs	r2, #1
 5870 0072 1A70     		strb	r2, [r3]
 5871 0074 BB6A     		ldr	r3, [r7, #40]
 5872 0076 002B     		cmp	r3, #0
 5873 0078 01D0     		beq	.L486
 5874 007a 0123     		movs	r3, #1
 5875 007c BB61     		str	r3, [r7, #24]
 5876              	.L486:
 5877 007e FFF7FEFF 		bl	vPortExitCritical
 5878 0082 BB69     		ldr	r3, [r7, #24]
 5879 0084 012B     		cmp	r3, #1
 5880 0086 03D1     		bne	.L487
 5881 0088 0121     		movs	r1, #1
 5882 008a B86A     		ldr	r0, [r7, #40]
 5883 008c FFF7FEFF 		bl	prvAddCurrentTaskToDelayedList
 5884              	.L487:
 5885 0090 FFF7FEFF 		bl	xTaskResumeAll
 5886 0094 7861     		str	r0, [r7, #20]
 5887 0096 BB69     		ldr	r3, [r7, #24]
 5888 0098 012B     		cmp	r3, #1
 5889 009a 0AD1     		bne	.L488
 5890 009c 7B69     		ldr	r3, [r7, #20]
 5891 009e 002B     		cmp	r3, #0
 5892 00a0 07D1     		bne	.L488
 5893 00a2 214B     		ldr	r3, .L493+4
 5894 00a4 4FF08052 		mov	r2, #268435456
 5895 00a8 1A60     		str	r2, [r3]
ARM GAS  C:\Users\phamt\AppData\Local\Temp\ccgYGYX4.s 			page 102


 5896              		.syntax unified
 5897              	@ 7795 "FreeRTOS/tasks.c" 1
 5898 00aa BFF34F8F 		dsb
 5899              	@ 0 "" 2
 5900              	@ 7795 "FreeRTOS/tasks.c" 1
 5901 00ae BFF36F8F 		isb
 5902              	@ 0 "" 2
 5903              		.thumb
 5904              		.syntax unified
 5905              	.L488:
 5906 00b2 FFF7FEFF 		bl	vPortEnterCritical
 5907 00b6 3B68     		ldr	r3, [r7]
 5908 00b8 002B     		cmp	r3, #0
 5909 00ba 08D0     		beq	.L489
 5910 00bc 194B     		ldr	r3, .L493
 5911 00be 1A68     		ldr	r2, [r3]
 5912 00c0 FB68     		ldr	r3, [r7, #12]
 5913 00c2 1433     		adds	r3, r3, #20
 5914 00c4 9B00     		lsls	r3, r3, #2
 5915 00c6 1344     		add	r3, r3, r2
 5916 00c8 5A68     		ldr	r2, [r3, #4]
 5917 00ca 3B68     		ldr	r3, [r7]
 5918 00cc 1A60     		str	r2, [r3]
 5919              	.L489:
 5920 00ce 154B     		ldr	r3, .L493
 5921 00d0 1A68     		ldr	r2, [r3]
 5922 00d2 FB68     		ldr	r3, [r7, #12]
 5923 00d4 1344     		add	r3, r3, r2
 5924 00d6 5833     		adds	r3, r3, #88
 5925 00d8 1B78     		ldrb	r3, [r3]
 5926 00da DBB2     		uxtb	r3, r3
 5927 00dc 022B     		cmp	r3, #2
 5928 00de 02D0     		beq	.L490
 5929 00e0 0023     		movs	r3, #0
 5930 00e2 FB61     		str	r3, [r7, #28]
 5931 00e4 10E0     		b	.L491
 5932              	.L490:
 5933 00e6 0F4B     		ldr	r3, .L493
 5934 00e8 1A68     		ldr	r2, [r3]
 5935 00ea FB68     		ldr	r3, [r7, #12]
 5936 00ec 1433     		adds	r3, r3, #20
 5937 00ee 9B00     		lsls	r3, r3, #2
 5938 00f0 1344     		add	r3, r3, r2
 5939 00f2 5968     		ldr	r1, [r3, #4]
 5940 00f4 7B68     		ldr	r3, [r7, #4]
 5941 00f6 DB43     		mvns	r3, r3
 5942 00f8 1940     		ands	r1, r1, r3
 5943 00fa FB68     		ldr	r3, [r7, #12]
 5944 00fc 1433     		adds	r3, r3, #20
 5945 00fe 9B00     		lsls	r3, r3, #2
 5946 0100 1344     		add	r3, r3, r2
 5947 0102 5960     		str	r1, [r3, #4]
 5948 0104 0123     		movs	r3, #1
 5949 0106 FB61     		str	r3, [r7, #28]
 5950              	.L491:
 5951 0108 064B     		ldr	r3, .L493
 5952 010a 1A68     		ldr	r2, [r3]
ARM GAS  C:\Users\phamt\AppData\Local\Temp\ccgYGYX4.s 			page 103


 5953 010c FB68     		ldr	r3, [r7, #12]
 5954 010e 1344     		add	r3, r3, r2
 5955 0110 5833     		adds	r3, r3, #88
 5956 0112 0022     		movs	r2, #0
 5957 0114 1A70     		strb	r2, [r3]
 5958 0116 FFF7FEFF 		bl	vPortExitCritical
 5959 011a FB69     		ldr	r3, [r7, #28]
 5960 011c 1846     		mov	r0, r3
 5961 011e 2037     		adds	r7, r7, #32
 5962 0120 BD46     		mov	sp, r7
 5963              		@ sp needed
 5964 0122 80BD     		pop	{r7, pc}
 5965              	.L494:
 5966              		.align	2
 5967              	.L493:
 5968 0124 00000000 		.word	pxCurrentTCB
 5969 0128 04ED00E0 		.word	-536810236
 5971              		.section	.text.xTaskGenericNotify,"ax",%progbits
 5972              		.align	1
 5973              		.global	xTaskGenericNotify
 5974              		.syntax unified
 5975              		.thumb
 5976              		.thumb_func
 5978              	xTaskGenericNotify:
 5979              		@ args = 4, pretend = 0, frame = 56
 5980              		@ frame_needed = 1, uses_anonymous_args = 0
 5981 0000 80B5     		push	{r7, lr}
 5982 0002 8EB0     		sub	sp, sp, #56
 5983 0004 00AF     		add	r7, sp, #0
 5984 0006 F860     		str	r0, [r7, #12]
 5985 0008 B960     		str	r1, [r7, #8]
 5986 000a 7A60     		str	r2, [r7, #4]
 5987 000c FB70     		strb	r3, [r7, #3]
 5988 000e 0123     		movs	r3, #1
 5989 0010 7B63     		str	r3, [r7, #52]
 5990 0012 BB68     		ldr	r3, [r7, #8]
 5991 0014 002B     		cmp	r3, #0
 5992 0016 0AD0     		beq	.L496
 5993              		.syntax unified
 5994              	@ 217 "FreeRTOS/portable/GCC/ARM_CM4F/portmacro.h" 1
 5995 0018 4FF05003 		   mov r3, #80                                              
 5996 001c 83F31188 	   msr basepri, r3                                         
 5997 0020 BFF36F8F 	   isb                                                     
 5998 0024 BFF34F8F 	   dsb                                                     
 5999              	
 6000              	@ 0 "" 2
 6001              		.thumb
 6002              		.syntax unified
 6003 0028 3B62     		str	r3, [r7, #32]
 6004 002a 00BF     		nop
 6005              	.L497:
 6006 002c FEE7     		b	.L497
 6007              	.L496:
 6008 002e FB68     		ldr	r3, [r7, #12]
 6009 0030 002B     		cmp	r3, #0
 6010 0032 0AD1     		bne	.L498
 6011              		.syntax unified
ARM GAS  C:\Users\phamt\AppData\Local\Temp\ccgYGYX4.s 			page 104


 6012              	@ 217 "FreeRTOS/portable/GCC/ARM_CM4F/portmacro.h" 1
 6013 0034 4FF05003 		   mov r3, #80                                              
 6014 0038 83F31188 	   msr basepri, r3                                         
 6015 003c BFF36F8F 	   isb                                                     
 6016 0040 BFF34F8F 	   dsb                                                     
 6017              	
 6018              	@ 0 "" 2
 6019              		.thumb
 6020              		.syntax unified
 6021 0044 FB61     		str	r3, [r7, #28]
 6022 0046 00BF     		nop
 6023              	.L499:
 6024 0048 FEE7     		b	.L499
 6025              	.L498:
 6026 004a FB68     		ldr	r3, [r7, #12]
 6027 004c 3B63     		str	r3, [r7, #48]
 6028 004e FFF7FEFF 		bl	vPortEnterCritical
 6029 0052 3B6C     		ldr	r3, [r7, #64]
 6030 0054 002B     		cmp	r3, #0
 6031 0056 07D0     		beq	.L500
 6032 0058 3A6B     		ldr	r2, [r7, #48]
 6033 005a BB68     		ldr	r3, [r7, #8]
 6034 005c 1433     		adds	r3, r3, #20
 6035 005e 9B00     		lsls	r3, r3, #2
 6036 0060 1344     		add	r3, r3, r2
 6037 0062 5A68     		ldr	r2, [r3, #4]
 6038 0064 3B6C     		ldr	r3, [r7, #64]
 6039 0066 1A60     		str	r2, [r3]
 6040              	.L500:
 6041 0068 3A6B     		ldr	r2, [r7, #48]
 6042 006a BB68     		ldr	r3, [r7, #8]
 6043 006c 1344     		add	r3, r3, r2
 6044 006e 5833     		adds	r3, r3, #88
 6045 0070 1B78     		ldrb	r3, [r3]
 6046 0072 87F82F30 		strb	r3, [r7, #47]
 6047 0076 3A6B     		ldr	r2, [r7, #48]
 6048 0078 BB68     		ldr	r3, [r7, #8]
 6049 007a 1344     		add	r3, r3, r2
 6050 007c 5833     		adds	r3, r3, #88
 6051 007e 0222     		movs	r2, #2
 6052 0080 1A70     		strb	r2, [r3]
 6053 0082 FB78     		ldrb	r3, [r7, #3]	@ zero_extendqisi2
 6054 0084 042B     		cmp	r3, #4
 6055 0086 41D8     		bhi	.L501
 6056 0088 01A2     		adr	r2, .L503
 6057 008a 52F823F0 		ldr	pc, [r2, r3, lsl #2]
 6058 008e 00BF     		.p2align 2
 6059              	.L503:
 6060 0090 2B010000 		.word	.L519+1
 6061 0094 A5000000 		.word	.L506+1
 6062 0098 C3000000 		.word	.L505+1
 6063 009c DF000000 		.word	.L504+1
 6064 00a0 EF000000 		.word	.L502+1
 6065              		.p2align 1
 6066              	.L506:
 6067 00a4 3A6B     		ldr	r2, [r7, #48]
 6068 00a6 BB68     		ldr	r3, [r7, #8]
ARM GAS  C:\Users\phamt\AppData\Local\Temp\ccgYGYX4.s 			page 105


 6069 00a8 1433     		adds	r3, r3, #20
 6070 00aa 9B00     		lsls	r3, r3, #2
 6071 00ac 1344     		add	r3, r3, r2
 6072 00ae 5A68     		ldr	r2, [r3, #4]
 6073 00b0 7B68     		ldr	r3, [r7, #4]
 6074 00b2 1A43     		orrs	r2, r2, r3
 6075 00b4 396B     		ldr	r1, [r7, #48]
 6076 00b6 BB68     		ldr	r3, [r7, #8]
 6077 00b8 1433     		adds	r3, r3, #20
 6078 00ba 9B00     		lsls	r3, r3, #2
 6079 00bc 0B44     		add	r3, r3, r1
 6080 00be 5A60     		str	r2, [r3, #4]
 6081 00c0 36E0     		b	.L508
 6082              	.L505:
 6083 00c2 3A6B     		ldr	r2, [r7, #48]
 6084 00c4 BB68     		ldr	r3, [r7, #8]
 6085 00c6 1433     		adds	r3, r3, #20
 6086 00c8 9B00     		lsls	r3, r3, #2
 6087 00ca 1344     		add	r3, r3, r2
 6088 00cc 5B68     		ldr	r3, [r3, #4]
 6089 00ce 5A1C     		adds	r2, r3, #1
 6090 00d0 396B     		ldr	r1, [r7, #48]
 6091 00d2 BB68     		ldr	r3, [r7, #8]
 6092 00d4 1433     		adds	r3, r3, #20
 6093 00d6 9B00     		lsls	r3, r3, #2
 6094 00d8 0B44     		add	r3, r3, r1
 6095 00da 5A60     		str	r2, [r3, #4]
 6096 00dc 28E0     		b	.L508
 6097              	.L504:
 6098 00de 3A6B     		ldr	r2, [r7, #48]
 6099 00e0 BB68     		ldr	r3, [r7, #8]
 6100 00e2 1433     		adds	r3, r3, #20
 6101 00e4 9B00     		lsls	r3, r3, #2
 6102 00e6 1344     		add	r3, r3, r2
 6103 00e8 7A68     		ldr	r2, [r7, #4]
 6104 00ea 5A60     		str	r2, [r3, #4]
 6105 00ec 20E0     		b	.L508
 6106              	.L502:
 6107 00ee 97F82F30 		ldrb	r3, [r7, #47]	@ zero_extendqisi2
 6108 00f2 022B     		cmp	r3, #2
 6109 00f4 07D0     		beq	.L509
 6110 00f6 3A6B     		ldr	r2, [r7, #48]
 6111 00f8 BB68     		ldr	r3, [r7, #8]
 6112 00fa 1433     		adds	r3, r3, #20
 6113 00fc 9B00     		lsls	r3, r3, #2
 6114 00fe 1344     		add	r3, r3, r2
 6115 0100 7A68     		ldr	r2, [r7, #4]
 6116 0102 5A60     		str	r2, [r3, #4]
 6117 0104 14E0     		b	.L508
 6118              	.L509:
 6119 0106 0023     		movs	r3, #0
 6120 0108 7B63     		str	r3, [r7, #52]
 6121 010a 11E0     		b	.L508
 6122              	.L501:
 6123 010c 4D4B     		ldr	r3, .L521
 6124 010e 1B68     		ldr	r3, [r3]
 6125 0110 002B     		cmp	r3, #0
ARM GAS  C:\Users\phamt\AppData\Local\Temp\ccgYGYX4.s 			page 106


 6126 0112 0CD0     		beq	.L520
 6127              		.syntax unified
 6128              	@ 217 "FreeRTOS/portable/GCC/ARM_CM4F/portmacro.h" 1
 6129 0114 4FF05003 		   mov r3, #80                                              
 6130 0118 83F31188 	   msr basepri, r3                                         
 6131 011c BFF36F8F 	   isb                                                     
 6132 0120 BFF34F8F 	   dsb                                                     
 6133              	
 6134              	@ 0 "" 2
 6135              		.thumb
 6136              		.syntax unified
 6137 0124 BB61     		str	r3, [r7, #24]
 6138 0126 00BF     		nop
 6139              	.L512:
 6140 0128 FEE7     		b	.L512
 6141              	.L519:
 6142 012a 00BF     		nop
 6143 012c 00E0     		b	.L508
 6144              	.L520:
 6145 012e 00BF     		nop
 6146              	.L508:
 6147 0130 97F82F30 		ldrb	r3, [r7, #47]	@ zero_extendqisi2
 6148 0134 012B     		cmp	r3, #1
 6149 0136 7ED1     		bne	.L513
 6150 0138 3B6B     		ldr	r3, [r7, #48]
 6151 013a 5B69     		ldr	r3, [r3, #20]
 6152 013c BB62     		str	r3, [r7, #40]
 6153 013e 3B6B     		ldr	r3, [r7, #48]
 6154 0140 9B68     		ldr	r3, [r3, #8]
 6155 0142 3A6B     		ldr	r2, [r7, #48]
 6156 0144 D268     		ldr	r2, [r2, #12]
 6157 0146 9A60     		str	r2, [r3, #8]
 6158 0148 3B6B     		ldr	r3, [r7, #48]
 6159 014a DB68     		ldr	r3, [r3, #12]
 6160 014c 3A6B     		ldr	r2, [r7, #48]
 6161 014e 9268     		ldr	r2, [r2, #8]
 6162 0150 5A60     		str	r2, [r3, #4]
 6163 0152 BB6A     		ldr	r3, [r7, #40]
 6164 0154 5A68     		ldr	r2, [r3, #4]
 6165 0156 3B6B     		ldr	r3, [r7, #48]
 6166 0158 0433     		adds	r3, r3, #4
 6167 015a 9A42     		cmp	r2, r3
 6168 015c 03D1     		bne	.L514
 6169 015e 3B6B     		ldr	r3, [r7, #48]
 6170 0160 DA68     		ldr	r2, [r3, #12]
 6171 0162 BB6A     		ldr	r3, [r7, #40]
 6172 0164 5A60     		str	r2, [r3, #4]
 6173              	.L514:
 6174 0166 3B6B     		ldr	r3, [r7, #48]
 6175 0168 0022     		movs	r2, #0
 6176 016a 5A61     		str	r2, [r3, #20]
 6177 016c BB6A     		ldr	r3, [r7, #40]
 6178 016e 1B68     		ldr	r3, [r3]
 6179 0170 5A1E     		subs	r2, r3, #1
 6180 0172 BB6A     		ldr	r3, [r7, #40]
 6181 0174 1A60     		str	r2, [r3]
 6182 0176 3B6B     		ldr	r3, [r7, #48]
ARM GAS  C:\Users\phamt\AppData\Local\Temp\ccgYGYX4.s 			page 107


 6183 0178 DA6A     		ldr	r2, [r3, #44]
 6184 017a 334B     		ldr	r3, .L521+4
 6185 017c 1B68     		ldr	r3, [r3]
 6186 017e 9A42     		cmp	r2, r3
 6187 0180 03D9     		bls	.L515
 6188 0182 3B6B     		ldr	r3, [r7, #48]
 6189 0184 DB6A     		ldr	r3, [r3, #44]
 6190 0186 304A     		ldr	r2, .L521+4
 6191 0188 1360     		str	r3, [r2]
 6192              	.L515:
 6193 018a 3B6B     		ldr	r3, [r7, #48]
 6194 018c DA6A     		ldr	r2, [r3, #44]
 6195 018e 2F49     		ldr	r1, .L521+8
 6196 0190 1346     		mov	r3, r2
 6197 0192 9B00     		lsls	r3, r3, #2
 6198 0194 1344     		add	r3, r3, r2
 6199 0196 9B00     		lsls	r3, r3, #2
 6200 0198 0B44     		add	r3, r3, r1
 6201 019a 0433     		adds	r3, r3, #4
 6202 019c 1B68     		ldr	r3, [r3]
 6203 019e 7B62     		str	r3, [r7, #36]
 6204 01a0 3B6B     		ldr	r3, [r7, #48]
 6205 01a2 7A6A     		ldr	r2, [r7, #36]
 6206 01a4 9A60     		str	r2, [r3, #8]
 6207 01a6 7B6A     		ldr	r3, [r7, #36]
 6208 01a8 9A68     		ldr	r2, [r3, #8]
 6209 01aa 3B6B     		ldr	r3, [r7, #48]
 6210 01ac DA60     		str	r2, [r3, #12]
 6211 01ae 7B6A     		ldr	r3, [r7, #36]
 6212 01b0 9B68     		ldr	r3, [r3, #8]
 6213 01b2 3A6B     		ldr	r2, [r7, #48]
 6214 01b4 0432     		adds	r2, r2, #4
 6215 01b6 5A60     		str	r2, [r3, #4]
 6216 01b8 3B6B     		ldr	r3, [r7, #48]
 6217 01ba 1A1D     		adds	r2, r3, #4
 6218 01bc 7B6A     		ldr	r3, [r7, #36]
 6219 01be 9A60     		str	r2, [r3, #8]
 6220 01c0 3B6B     		ldr	r3, [r7, #48]
 6221 01c2 DA6A     		ldr	r2, [r3, #44]
 6222 01c4 1346     		mov	r3, r2
 6223 01c6 9B00     		lsls	r3, r3, #2
 6224 01c8 1344     		add	r3, r3, r2
 6225 01ca 9B00     		lsls	r3, r3, #2
 6226 01cc 1F4A     		ldr	r2, .L521+8
 6227 01ce 1A44     		add	r2, r2, r3
 6228 01d0 3B6B     		ldr	r3, [r7, #48]
 6229 01d2 5A61     		str	r2, [r3, #20]
 6230 01d4 3B6B     		ldr	r3, [r7, #48]
 6231 01d6 DA6A     		ldr	r2, [r3, #44]
 6232 01d8 1C49     		ldr	r1, .L521+8
 6233 01da 1346     		mov	r3, r2
 6234 01dc 9B00     		lsls	r3, r3, #2
 6235 01de 1344     		add	r3, r3, r2
 6236 01e0 9B00     		lsls	r3, r3, #2
 6237 01e2 0B44     		add	r3, r3, r1
 6238 01e4 1B68     		ldr	r3, [r3]
 6239 01e6 3A6B     		ldr	r2, [r7, #48]
ARM GAS  C:\Users\phamt\AppData\Local\Temp\ccgYGYX4.s 			page 108


 6240 01e8 D26A     		ldr	r2, [r2, #44]
 6241 01ea 591C     		adds	r1, r3, #1
 6242 01ec 1748     		ldr	r0, .L521+8
 6243 01ee 1346     		mov	r3, r2
 6244 01f0 9B00     		lsls	r3, r3, #2
 6245 01f2 1344     		add	r3, r3, r2
 6246 01f4 9B00     		lsls	r3, r3, #2
 6247 01f6 0344     		add	r3, r3, r0
 6248 01f8 1960     		str	r1, [r3]
 6249 01fa 3B6B     		ldr	r3, [r7, #48]
 6250 01fc 9B6A     		ldr	r3, [r3, #40]
 6251 01fe 002B     		cmp	r3, #0
 6252 0200 0AD0     		beq	.L516
 6253              		.syntax unified
 6254              	@ 217 "FreeRTOS/portable/GCC/ARM_CM4F/portmacro.h" 1
 6255 0202 4FF05003 		   mov r3, #80                                              
 6256 0206 83F31188 	   msr basepri, r3                                         
 6257 020a BFF36F8F 	   isb                                                     
 6258 020e BFF34F8F 	   dsb                                                     
 6259              	
 6260              	@ 0 "" 2
 6261              		.thumb
 6262              		.syntax unified
 6263 0212 7B61     		str	r3, [r7, #20]
 6264 0214 00BF     		nop
 6265              	.L517:
 6266 0216 FEE7     		b	.L517
 6267              	.L516:
 6268 0218 0D4B     		ldr	r3, .L521+12
 6269 021a 1B68     		ldr	r3, [r3]
 6270 021c DA6A     		ldr	r2, [r3, #44]
 6271 021e 3B6B     		ldr	r3, [r7, #48]
 6272 0220 DB6A     		ldr	r3, [r3, #44]
 6273 0222 9A42     		cmp	r2, r3
 6274 0224 07D2     		bcs	.L513
 6275 0226 0B4B     		ldr	r3, .L521+16
 6276 0228 4FF08052 		mov	r2, #268435456
 6277 022c 1A60     		str	r2, [r3]
 6278              		.syntax unified
 6279              	@ 7945 "FreeRTOS/tasks.c" 1
 6280 022e BFF34F8F 		dsb
 6281              	@ 0 "" 2
 6282              	@ 7945 "FreeRTOS/tasks.c" 1
 6283 0232 BFF36F8F 		isb
 6284              	@ 0 "" 2
 6285              		.thumb
 6286              		.syntax unified
 6287              	.L513:
 6288 0236 FFF7FEFF 		bl	vPortExitCritical
 6289 023a 7B6B     		ldr	r3, [r7, #52]
 6290 023c 1846     		mov	r0, r3
 6291 023e 3837     		adds	r7, r7, #56
 6292 0240 BD46     		mov	sp, r7
 6293              		@ sp needed
 6294 0242 80BD     		pop	{r7, pc}
 6295              	.L522:
 6296              		.align	2
ARM GAS  C:\Users\phamt\AppData\Local\Temp\ccgYGYX4.s 			page 109


 6297              	.L521:
 6298 0244 00000000 		.word	xTickCount
 6299 0248 00000000 		.word	uxTopReadyPriority
 6300 024c 00000000 		.word	pxReadyTasksLists
 6301 0250 00000000 		.word	pxCurrentTCB
 6302 0254 04ED00E0 		.word	-536810236
 6304              		.section	.text.xTaskGenericNotifyFromISR,"ax",%progbits
 6305              		.align	1
 6306              		.global	xTaskGenericNotifyFromISR
 6307              		.syntax unified
 6308              		.thumb
 6309              		.thumb_func
 6311              	xTaskGenericNotifyFromISR:
 6312              		@ args = 8, pretend = 0, frame = 72
 6313              		@ frame_needed = 1, uses_anonymous_args = 0
 6314 0000 80B5     		push	{r7, lr}
 6315 0002 92B0     		sub	sp, sp, #72
 6316 0004 00AF     		add	r7, sp, #0
 6317 0006 F860     		str	r0, [r7, #12]
 6318 0008 B960     		str	r1, [r7, #8]
 6319 000a 7A60     		str	r2, [r7, #4]
 6320 000c FB70     		strb	r3, [r7, #3]
 6321 000e 0123     		movs	r3, #1
 6322 0010 7B64     		str	r3, [r7, #68]
 6323 0012 FB68     		ldr	r3, [r7, #12]
 6324 0014 002B     		cmp	r3, #0
 6325 0016 0AD1     		bne	.L524
 6326              		.syntax unified
 6327              	@ 217 "FreeRTOS/portable/GCC/ARM_CM4F/portmacro.h" 1
 6328 0018 4FF05003 		   mov r3, #80                                              
 6329 001c 83F31188 	   msr basepri, r3                                         
 6330 0020 BFF36F8F 	   isb                                                     
 6331 0024 BFF34F8F 	   dsb                                                     
 6332              	
 6333              	@ 0 "" 2
 6334              		.thumb
 6335              		.syntax unified
 6336 0028 BB62     		str	r3, [r7, #40]
 6337 002a 00BF     		nop
 6338              	.L525:
 6339 002c FEE7     		b	.L525
 6340              	.L524:
 6341 002e BB68     		ldr	r3, [r7, #8]
 6342 0030 002B     		cmp	r3, #0
 6343 0032 0AD0     		beq	.L526
 6344              		.syntax unified
 6345              	@ 217 "FreeRTOS/portable/GCC/ARM_CM4F/portmacro.h" 1
 6346 0034 4FF05003 		   mov r3, #80                                              
 6347 0038 83F31188 	   msr basepri, r3                                         
 6348 003c BFF36F8F 	   isb                                                     
 6349 0040 BFF34F8F 	   dsb                                                     
 6350              	
 6351              	@ 0 "" 2
 6352              		.thumb
 6353              		.syntax unified
 6354 0044 7B62     		str	r3, [r7, #36]
 6355 0046 00BF     		nop
ARM GAS  C:\Users\phamt\AppData\Local\Temp\ccgYGYX4.s 			page 110


 6356              	.L527:
 6357 0048 FEE7     		b	.L527
 6358              	.L526:
 6359 004a FFF7FEFF 		bl	vPortValidateInterruptPriority
 6360 004e FB68     		ldr	r3, [r7, #12]
 6361 0050 3B64     		str	r3, [r7, #64]
 6362              		.syntax unified
 6363              	@ 233 "FreeRTOS/portable/GCC/ARM_CM4F/portmacro.h" 1
 6364 0052 EFF31182 		   mrs r2, basepri                                         
 6365 0056 4FF05003 	   mov r3, #80                                              
 6366 005a 83F31188 	   msr basepri, r3                                         
 6367 005e BFF36F8F 	   isb                                                     
 6368 0062 BFF34F8F 	   dsb                                                     
 6369              	
 6370              	@ 0 "" 2
 6371              		.thumb
 6372              		.syntax unified
 6373 0066 3A62     		str	r2, [r7, #32]
 6374 0068 FB61     		str	r3, [r7, #28]
 6375 006a 3B6A     		ldr	r3, [r7, #32]
 6376 006c FB63     		str	r3, [r7, #60]
 6377 006e 3B6D     		ldr	r3, [r7, #80]
 6378 0070 002B     		cmp	r3, #0
 6379 0072 07D0     		beq	.L529
 6380 0074 3A6C     		ldr	r2, [r7, #64]
 6381 0076 BB68     		ldr	r3, [r7, #8]
 6382 0078 1433     		adds	r3, r3, #20
 6383 007a 9B00     		lsls	r3, r3, #2
 6384 007c 1344     		add	r3, r3, r2
 6385 007e 5A68     		ldr	r2, [r3, #4]
 6386 0080 3B6D     		ldr	r3, [r7, #80]
 6387 0082 1A60     		str	r2, [r3]
 6388              	.L529:
 6389 0084 3A6C     		ldr	r2, [r7, #64]
 6390 0086 BB68     		ldr	r3, [r7, #8]
 6391 0088 1344     		add	r3, r3, r2
 6392 008a 5833     		adds	r3, r3, #88
 6393 008c 1B78     		ldrb	r3, [r3]
 6394 008e 87F83B30 		strb	r3, [r7, #59]
 6395 0092 3A6C     		ldr	r2, [r7, #64]
 6396 0094 BB68     		ldr	r3, [r7, #8]
 6397 0096 1344     		add	r3, r3, r2
 6398 0098 5833     		adds	r3, r3, #88
 6399 009a 0222     		movs	r2, #2
 6400 009c 1A70     		strb	r2, [r3]
 6401 009e FB78     		ldrb	r3, [r7, #3]	@ zero_extendqisi2
 6402 00a0 042B     		cmp	r3, #4
 6403 00a2 41D8     		bhi	.L530
 6404 00a4 01A2     		adr	r2, .L532
 6405 00a6 52F823F0 		ldr	pc, [r2, r3, lsl #2]
 6406 00aa 00BF     		.p2align 2
 6407              	.L532:
 6408 00ac 47010000 		.word	.L551+1
 6409 00b0 C1000000 		.word	.L535+1
 6410 00b4 DF000000 		.word	.L534+1
 6411 00b8 FB000000 		.word	.L533+1
 6412 00bc 0B010000 		.word	.L531+1
ARM GAS  C:\Users\phamt\AppData\Local\Temp\ccgYGYX4.s 			page 111


 6413              		.p2align 1
 6414              	.L535:
 6415 00c0 3A6C     		ldr	r2, [r7, #64]
 6416 00c2 BB68     		ldr	r3, [r7, #8]
 6417 00c4 1433     		adds	r3, r3, #20
 6418 00c6 9B00     		lsls	r3, r3, #2
 6419 00c8 1344     		add	r3, r3, r2
 6420 00ca 5A68     		ldr	r2, [r3, #4]
 6421 00cc 7B68     		ldr	r3, [r7, #4]
 6422 00ce 1A43     		orrs	r2, r2, r3
 6423 00d0 396C     		ldr	r1, [r7, #64]
 6424 00d2 BB68     		ldr	r3, [r7, #8]
 6425 00d4 1433     		adds	r3, r3, #20
 6426 00d6 9B00     		lsls	r3, r3, #2
 6427 00d8 0B44     		add	r3, r3, r1
 6428 00da 5A60     		str	r2, [r3, #4]
 6429 00dc 36E0     		b	.L537
 6430              	.L534:
 6431 00de 3A6C     		ldr	r2, [r7, #64]
 6432 00e0 BB68     		ldr	r3, [r7, #8]
 6433 00e2 1433     		adds	r3, r3, #20
 6434 00e4 9B00     		lsls	r3, r3, #2
 6435 00e6 1344     		add	r3, r3, r2
 6436 00e8 5B68     		ldr	r3, [r3, #4]
 6437 00ea 5A1C     		adds	r2, r3, #1
 6438 00ec 396C     		ldr	r1, [r7, #64]
